///////////////////////////////////////////////////////////////////////////////
//
// IAR C/C++ Compiler V9.30.3.3983 for 8051               06/Apr/2017  12:17:03
// Copyright 2004-2016 IAR Systems AB.
// Evaluation license - IAR Embedded Workbench for 8051, Evaluation version 9.30
//
//    Core               =  plain
//    Code model         =  banked
//    Data model         =  large
//    Calling convention =  xdata reentrant
//    Constant location  =  data_rom
//    Dptr setup         =  1,16
//                          
//    Source file        =  
//        C:\Users\bsavanovic\Desktop\EndDevice\ZigBeeEndDevice\Projects\zstack\Samples\GenericApp\Source\GenericApp.c
//    Command line       =  
//        -f
//        C:\Users\bsavanovic\Desktop\EndDevice\ZigBeeEndDevice\Projects\zstack\Samples\GenericApp\CC2530DB\..\..\..\Tools\CC2530DB\f8wEndev.cfg
//        (-DCPU32MHZ -DROOT=__near_func -DMAC_CFG_TX_DATA_MAX=3
//        -DMAC_CFG_TX_MAX=6 -DMAC_CFG_RX_MAX=3) -f
//        C:\Users\bsavanovic\Desktop\EndDevice\ZigBeeEndDevice\Projects\zstack\Samples\GenericApp\CC2530DB\..\..\..\Tools\CC2530DB\f8wConfig.cfg
//        (-DZIGBEEPRO -DSECURE=1 -DZG_SECURE_DYNAMIC=0 -DREFLECTOR
//        -DDEFAULT_CHANLIST=0x00000800 -DZDAPP_CONFIG_PAN_ID=0x0422
//        -DNWK_START_DELAY=100 -DEXTENDED_JOINING_RANDOM_MASK=0x007F
//        -DBEACON_REQUEST_DELAY=100 -DBEACON_REQ_DELAY_MASK=0x00FF
//        -DLINK_STATUS_JITTER_MASK=0x007F -DROUTE_EXPIRY_TIME=30
//        -DAPSC_ACK_WAIT_DURATION_POLLED=3000 -DNWK_INDIRECT_MSG_TIMEOUT=7
//        -DMAX_RREQ_ENTRIES=8 -DAPSC_MAX_FRAME_RETRIES=3
//        -DNWK_MAX_DATA_RETRIES=2 -DMAX_POLL_FAILURE_RETRIES=2 -DMAX_BCAST=9
//        -DAPS_MAX_GROUPS=16 -DMAX_RTG_ENTRIES=40 -DNWK_MAX_BINDING_ENTRIES=4
//        -DMAX_BINDING_CLUSTER_IDS=4 "-DDEFAULT_KEY={0x01, 0x03, 0x05, 0x07,
//        0x09, 0x0B, 0x0D, 0x0F, 0x00, 0x02, 0x04, 0x06, 0x08, 0x0A, 0x0C,
//        0x0D}" -DMAC_MAX_FRAME_SIZE=116 -DZDNWKMGR_MIN_TRANSMISSIONS=20
//        "-DCONST=const __code" -DGENERIC=__generic -DRFD_RCVC_ALWAYS_ON=FALSE
//        -DPOLL_RATE=1000 -DQUEUED_POLL_RATE=100 -DRESPONSE_POLL_RATE=100)
//        -DREJOIN_POLL_RATE=440
//        C:\Users\bsavanovic\Desktop\EndDevice\ZigBeeEndDevice\Projects\zstack\Samples\GenericApp\Source\GenericApp.c
//        -D NWK_AUTO_POLL -D ZTOOL_P1 -D MT_TASK -D MT_SYS_FUNC -D MT_ZDO_FUNC
//        -D LCD_SUPPORTED=DEBUG -D xPOWER_SAVING -lC
//        C:\Users\bsavanovic\Desktop\EndDevice\ZigBeeEndDevice\Projects\zstack\Samples\GenericApp\CC2530DB\EndDeviceEB\List
//        -lA
//        C:\Users\bsavanovic\Desktop\EndDevice\ZigBeeEndDevice\Projects\zstack\Samples\GenericApp\CC2530DB\EndDeviceEB\List
//        --diag_suppress Pe001,Pa010 -o
//        C:\Users\bsavanovic\Desktop\EndDevice\ZigBeeEndDevice\Projects\zstack\Samples\GenericApp\CC2530DB\EndDeviceEB\Obj
//        -e --no_code_motion --debug --core=plain --dptr=16,1
//        --data_model=large --code_model=banked
//        --calling_convention=xdata_reentrant --place_constants=data_rom
//        --nr_virtual_regs 16 -I
//        C:\Users\bsavanovic\Desktop\EndDevice\ZigBeeEndDevice\Projects\zstack\Samples\GenericApp\CC2530DB\
//        -I
//        C:\Users\bsavanovic\Desktop\EndDevice\ZigBeeEndDevice\Projects\zstack\Samples\GenericApp\CC2530DB\..\Source\
//        -I
//        C:\Users\bsavanovic\Desktop\EndDevice\ZigBeeEndDevice\Projects\zstack\Samples\GenericApp\CC2530DB\..\..\..\ZMain\TI2530DB\
//        -I
//        C:\Users\bsavanovic\Desktop\EndDevice\ZigBeeEndDevice\Projects\zstack\Samples\GenericApp\CC2530DB\..\..\..\..\..\Components\hal\include\
//        -I
//        C:\Users\bsavanovic\Desktop\EndDevice\ZigBeeEndDevice\Projects\zstack\Samples\GenericApp\CC2530DB\..\..\..\..\..\Components\hal\target\CC2530EB\
//        -I
//        C:\Users\bsavanovic\Desktop\EndDevice\ZigBeeEndDevice\Projects\zstack\Samples\GenericApp\CC2530DB\..\..\..\..\..\Components\mac\include\
//        -I
//        C:\Users\bsavanovic\Desktop\EndDevice\ZigBeeEndDevice\Projects\zstack\Samples\GenericApp\CC2530DB\..\..\..\..\..\Components\mac\high_level\
//        -I
//        C:\Users\bsavanovic\Desktop\EndDevice\ZigBeeEndDevice\Projects\zstack\Samples\GenericApp\CC2530DB\..\..\..\..\..\Components\mac\low_level\srf04\
//        -I
//        C:\Users\bsavanovic\Desktop\EndDevice\ZigBeeEndDevice\Projects\zstack\Samples\GenericApp\CC2530DB\..\..\..\..\..\Components\mac\low_level\srf04\single_chip\
//        -I
//        C:\Users\bsavanovic\Desktop\EndDevice\ZigBeeEndDevice\Projects\zstack\Samples\GenericApp\CC2530DB\..\..\..\..\..\Components\mt\
//        -I
//        C:\Users\bsavanovic\Desktop\EndDevice\ZigBeeEndDevice\Projects\zstack\Samples\GenericApp\CC2530DB\..\..\..\..\..\Components\osal\include\
//        -I
//        C:\Users\bsavanovic\Desktop\EndDevice\ZigBeeEndDevice\Projects\zstack\Samples\GenericApp\CC2530DB\..\..\..\..\..\Components\services\saddr\
//        -I
//        C:\Users\bsavanovic\Desktop\EndDevice\ZigBeeEndDevice\Projects\zstack\Samples\GenericApp\CC2530DB\..\..\..\..\..\Components\services\sdata\
//        -I
//        C:\Users\bsavanovic\Desktop\EndDevice\ZigBeeEndDevice\Projects\zstack\Samples\GenericApp\CC2530DB\..\..\..\..\..\Components\stack\af\
//        -I
//        C:\Users\bsavanovic\Desktop\EndDevice\ZigBeeEndDevice\Projects\zstack\Samples\GenericApp\CC2530DB\..\..\..\..\..\Components\stack\nwk\
//        -I
//        C:\Users\bsavanovic\Desktop\EndDevice\ZigBeeEndDevice\Projects\zstack\Samples\GenericApp\CC2530DB\..\..\..\..\..\Components\stack\sapi\
//        -I
//        C:\Users\bsavanovic\Desktop\EndDevice\ZigBeeEndDevice\Projects\zstack\Samples\GenericApp\CC2530DB\..\..\..\..\..\Components\stack\sec\
//        -I
//        C:\Users\bsavanovic\Desktop\EndDevice\ZigBeeEndDevice\Projects\zstack\Samples\GenericApp\CC2530DB\..\..\..\..\..\Components\stack\sys\
//        -I
//        C:\Users\bsavanovic\Desktop\EndDevice\ZigBeeEndDevice\Projects\zstack\Samples\GenericApp\CC2530DB\..\..\..\..\..\Components\stack\zdo\
//        -I
//        C:\Users\bsavanovic\Desktop\EndDevice\ZigBeeEndDevice\Projects\zstack\Samples\GenericApp\CC2530DB\..\..\..\..\..\Components\zmac\
//        -I
//        C:\Users\bsavanovic\Desktop\EndDevice\ZigBeeEndDevice\Projects\zstack\Samples\GenericApp\CC2530DB\..\..\..\..\..\Components\zmac\f8w\
//        -Ohz --require_prototypes
//    List file          =  
//        C:\Users\bsavanovic\Desktop\EndDevice\ZigBeeEndDevice\Projects\zstack\Samples\GenericApp\CC2530DB\EndDeviceEB\List\GenericApp.s51
//
///////////////////////////////////////////////////////////////////////////////

        NAME GenericApp

        RTMODEL "__SystemLibrary", "CLib"
        RTMODEL "__calling_convention", "xdata_reentrant"
        RTMODEL "__code_model", "banked"
        RTMODEL "__core", "plain"
        RTMODEL "__data_model", "large"
        RTMODEL "__dptr_size", "16"
        RTMODEL "__extended_stack", "disabled"
        RTMODEL "__location_for_constants", "data"
        RTMODEL "__number_of_dptrs", "1"
        RTMODEL "__rt_version", "1"

        RSEG DOVERLAY:DATA:NOROOT(0)
        RSEG IOVERLAY:IDATA:NOROOT(0)
        RSEG ISTACK:IDATA:NOROOT(0)
        RSEG PSTACK:XDATA:NOROOT(0)
        RSEG XSTACK:XDATA:NOROOT(0)

        EXTERN ?V0
        EXTERN ?V1
        EXTERN ?V2
        EXTERN ?V3
        EXTERN ?V4
        EXTERN ?V5
        EXTERN ?ALLOC_XSTACK8
        EXTERN ?BANKED_ENTER_XDATA
        EXTERN ?BANKED_LEAVE_XDATA
        EXTERN ?BDISPATCH
        EXTERN ?BRET
        EXTERN ?DEALLOC_XSTACK8
        EXTERN ?MOVE_LONG8_XDATA_XDATA
        EXTERN ?PUSH_XSTACK8_X_FOUR
        EXTERN ?PUSH_XSTACK_I_ONE
        EXTERN ?PUSH_XSTACK_I_TWO
        EXTERN ?US_SWITCH_SPARSE
        EXTERN ?XSP
        EXTERN ?XSTACK_DISP0_8
        EXTERN ?XSTACK_DISP100_8
        EXTERN ?XSTACK_DISP101_8
        EXTERN ?XSTACK_DISP102_8
        EXTERN __INIT_XDATA_I
        EXTERN __INIT_XDATA_Z

        PUBLIC `??GenericApp_Init::?relay`
        FUNCTION `??GenericApp_Init::?relay`,0203H
        PUBLIC `??GenericApp_ProcessEvent::?relay`
        FUNCTION `??GenericApp_ProcessEvent::?relay`,0203H
        PUBLIC `??MagneticSwitch_SendTheMessage::?relay`
        FUNCTION `??MagneticSwitch_SendTheMessage::?relay`,0203H
        PUBLIC `??MotionSensor_SendTheMessage::?relay`
        FUNCTION `??MotionSensor_SendTheMessage::?relay`,0203H
        PUBLIC `??magneticSwitchInit::?relay`
        FUNCTION `??magneticSwitchInit::?relay`,0203H
        PUBLIC `??magneticSwitch_DoorDetection::?relay`
        FUNCTION `??magneticSwitch_DoorDetection::?relay`,0203H
        PUBLIC `??motionDetection::?relay`
        FUNCTION `??motionDetection::?relay`,0203H
        PUBLIC `??motionInit::?relay`
        FUNCTION `??motionInit::?relay`,0203H
        PUBLIC GenericApp_ClusterList
        PUBLIC GenericApp_DstAddr
        PUBLIC GenericApp_DstAddr1
        PUBLIC GenericApp_DstAddr2
        PUBLIC GenericApp_Init
        FUNCTION GenericApp_Init,021203H
        ARGFRAME XSTACK, 0, STACK
        LOCFRAME XSTACK, 9, STACK
        PUBLIC GenericApp_NwkState
        PUBLIC GenericApp_ProcessEvent
        FUNCTION GenericApp_ProcessEvent,0a1203H
        ARGFRAME XSTACK, 0, STACK
        LOCFRAME XSTACK, 32, STACK
        PUBLIC GenericApp_SimpleDesc
        PUBLIC GenericApp_TaskID
        PUBLIC GenericApp_TransID
        PUBLIC GenericApp_epDesc
        PUBLIC MagneticSwitch_SendTheMessage
        FUNCTION MagneticSwitch_SendTheMessage,0a1203H
        ARGFRAME XSTACK, 0, STACK
        LOCFRAME XSTACK, 21, STACK
        PUBLIC MotionSensor_SendTheMessage
        FUNCTION MotionSensor_SendTheMessage,0a1203H
        ARGFRAME XSTACK, 0, STACK
        LOCFRAME XSTACK, 20, STACK
        PUBWEAK P1DIR
        PUBWEAK P1SEL
        PUBWEAK P2INP
        PUBLIC SAddr
        PUBWEAK _A_P0
        PUBWEAK _A_P2
        PUBLIC brojac
        PUBLIC coin
        PUBLIC counter
        PUBLIC dataBuffer
        PUBLIC index
        PUBLIC keyPressSW4
        PUBLIC magneticSwitchInit
        FUNCTION magneticSwitchInit,0203H
        ARGFRAME XSTACK, 0, STACK
        PUBLIC magneticSwitch_DoorDetection
        FUNCTION magneticSwitch_DoorDetection,0203H
        ARGFRAME XSTACK, 0, STACK
        PUBLIC motionDetection
        FUNCTION motionDetection,0203H
        ARGFRAME XSTACK, 11, STACK
        ARGFRAME IOVERLAY, 0, STATIC
        ARGFRAME DOVERLAY, 0, STATIC
        PUBLIC motionInit
        FUNCTION motionInit,0203H
        ARGFRAME XSTACK, 0, STACK
        PUBLIC prevData
        PUBLIC shortAddressOfEndDevice
        
          CFI Names cfiNames0
          CFI StackFrame CFA_SP SP IDATA
          CFI StackFrame CFA_PSP16 PSP16 XDATA
          CFI StackFrame CFA_XSP16 XSP16 XDATA
          CFI StaticOverlayFrame CFA_IOVERLAY IOVERLAY
          CFI StaticOverlayFrame CFA_DOVERLAY DOVERLAY
          CFI Resource `PSW.CY`:1, `B.BR0`:1, `B.BR1`:1, `B.BR2`:1, `B.BR3`:1
          CFI Resource `B.BR4`:1, `B.BR5`:1, `B.BR6`:1, `B.BR7`:1, `VB.BR8`:1
          CFI Resource `VB.BR9`:1, `VB.BR10`:1, `VB.BR11`:1, `VB.BR12`:1
          CFI Resource `VB.BR13`:1, `VB.BR14`:1, `VB.BR15`:1, VB:8, B:8, A:8
          CFI Resource PSW:8, DPL0:8, DPH0:8, R0:8, R1:8, R2:8, R3:8, R4:8, R5:8
          CFI Resource R6:8, R7:8, V0:8, V1:8, V2:8, V3:8, V4:8, V5:8, V6:8, V7:8
          CFI Resource V8:8, V9:8, V10:8, V11:8, V12:8, V13:8, V14:8, V15:8, SP:8
          CFI Resource PSPH:8, PSPL:8, PSP16:16, XSPH:8, XSPL:8, XSP16:16
          CFI VirtualResource ?RET:24
          CFI Resource ?BRET_EXT:8
          CFI VirtualResource ?RET_HIGH:8, ?RET_LOW:8
          CFI ResourceParts PSP16 PSPH, PSPL
          CFI ResourceParts XSP16 XSPH, XSPL
          CFI ResourceParts ?RET ?BRET_EXT, ?RET_HIGH, ?RET_LOW
          CFI EndNames cfiNames0
        
          CFI Common cfiCommon0 Using cfiNames0
          CFI CodeAlign 1
          CFI DataAlign -1
          CFI ReturnAddress ?RET CODE
          CFI CFA_DOVERLAY Used
          CFI CFA_IOVERLAY Used
          CFI CFA_SP SP+-3
          CFI CFA_PSP16 PSP16+0
          CFI CFA_XSP16 XSP16+0
          CFI `PSW.CY` SameValue
          CFI `B.BR0` SameValue
          CFI `B.BR1` SameValue
          CFI `B.BR2` SameValue
          CFI `B.BR3` SameValue
          CFI `B.BR4` SameValue
          CFI `B.BR5` SameValue
          CFI `B.BR6` SameValue
          CFI `B.BR7` SameValue
          CFI `VB.BR8` SameValue
          CFI `VB.BR9` SameValue
          CFI `VB.BR10` SameValue
          CFI `VB.BR11` SameValue
          CFI `VB.BR12` SameValue
          CFI `VB.BR13` SameValue
          CFI `VB.BR14` SameValue
          CFI `VB.BR15` SameValue
          CFI VB SameValue
          CFI B Undefined
          CFI A Undefined
          CFI PSW SameValue
          CFI DPL0 SameValue
          CFI DPH0 SameValue
          CFI R0 Undefined
          CFI R1 Undefined
          CFI R2 Undefined
          CFI R3 Undefined
          CFI R4 Undefined
          CFI R5 Undefined
          CFI R6 SameValue
          CFI R7 SameValue
          CFI V0 SameValue
          CFI V1 SameValue
          CFI V2 SameValue
          CFI V3 SameValue
          CFI V4 SameValue
          CFI V5 SameValue
          CFI V6 SameValue
          CFI V7 SameValue
          CFI V8 SameValue
          CFI V9 SameValue
          CFI V10 SameValue
          CFI V11 SameValue
          CFI V12 SameValue
          CFI V13 SameValue
          CFI V14 SameValue
          CFI V15 SameValue
          CFI PSPH Undefined
          CFI PSPL Undefined
          CFI XSPH Undefined
          CFI XSPL Undefined
          CFI ?RET Concat
          CFI ?BRET_EXT Frame(CFA_SP, 3)
          CFI ?RET_HIGH Frame(CFA_SP, 2)
          CFI ?RET_LOW Frame(CFA_SP, 1)
          CFI EndCommon cfiCommon0
        
AF_DataRequest      SYMBOL "AF_DataRequest"
`??AF_DataRequest::?relay` SYMBOL "?relay", AF_DataRequest
HalLcdWriteString   SYMBOL "HalLcdWriteString"
`??HalLcdWriteString::?relay` SYMBOL "?relay", HalLcdWriteString
HalLedSet           SYMBOL "HalLedSet"
`??HalLedSet::?relay` SYMBOL "?relay", HalLedSet
NLME_GetShortAddr   SYMBOL "NLME_GetShortAddr"
`??NLME_GetShortAddr::?relay` SYMBOL "?relay", NLME_GetShortAddr
RegisterForKeys     SYMBOL "RegisterForKeys"
`??RegisterForKeys::?relay` SYMBOL "?relay", RegisterForKeys
ZDO_ParseEPListRsp  SYMBOL "ZDO_ParseEPListRsp"
`??ZDO_ParseEPListRsp::?relay` SYMBOL "?relay", ZDO_ParseEPListRsp
ZDO_RegisterForZDOMsg SYMBOL "ZDO_RegisterForZDOMsg"
`??ZDO_RegisterForZDOMsg::?relay` SYMBOL "?relay", ZDO_RegisterForZDOMsg
ZDP_EndDeviceBindReq SYMBOL "ZDP_EndDeviceBindReq"
`??ZDP_EndDeviceBindReq::?relay` SYMBOL "?relay", ZDP_EndDeviceBindReq
afRegister          SYMBOL "afRegister"
`??afRegister::?relay` SYMBOL "?relay", afRegister
osal_mem_free       SYMBOL "osal_mem_free"
`??osal_mem_free::?relay` SYMBOL "?relay", osal_mem_free
osal_msg_deallocate SYMBOL "osal_msg_deallocate"
`??osal_msg_deallocate::?relay` SYMBOL "?relay", osal_msg_deallocate
osal_msg_receive    SYMBOL "osal_msg_receive"
`??osal_msg_receive::?relay` SYMBOL "?relay", osal_msg_receive
osal_set_event      SYMBOL "osal_set_event"
`??osal_set_event::?relay` SYMBOL "?relay", osal_set_event
osal_start_timerEx  SYMBOL "osal_start_timerEx"
`??osal_start_timerEx::?relay` SYMBOL "?relay", osal_start_timerEx
GenericApp_Init     SYMBOL "GenericApp_Init"
`??GenericApp_Init::?relay` SYMBOL "?relay", GenericApp_Init
GenericApp_ProcessEvent SYMBOL "GenericApp_ProcessEvent"
`??GenericApp_ProcessEvent::?relay` SYMBOL "?relay", GenericApp_ProcessEvent
MagneticSwitch_SendTheMessage SYMBOL "MagneticSwitch_SendTheMessage"
`??MagneticSwitch_SendTheMessage::?relay` SYMBOL "?relay", MagneticSwitch_SendTheMessage
MotionSensor_SendTheMessage SYMBOL "MotionSensor_SendTheMessage"
`??MotionSensor_SendTheMessage::?relay` SYMBOL "?relay", MotionSensor_SendTheMessage
magneticSwitchInit  SYMBOL "magneticSwitchInit"
`??magneticSwitchInit::?relay` SYMBOL "?relay", magneticSwitchInit
magneticSwitch_DoorDetection SYMBOL "magneticSwitch_DoorDetection"
`??magneticSwitch_DoorDetection::?relay` SYMBOL "?relay", magneticSwitch_DoorDetection
motionDetection     SYMBOL "motionDetection"
`??motionDetection::?relay` SYMBOL "?relay", motionDetection
motionInit          SYMBOL "motionInit"
`??motionInit::?relay` SYMBOL "?relay", motionInit

        EXTERN `??AF_DataRequest::?relay`
        FUNCTION `??AF_DataRequest::?relay`,00H
        EXTERN `??HalLcdWriteString::?relay`
        FUNCTION `??HalLcdWriteString::?relay`,00H
        EXTERN `??HalLedSet::?relay`
        FUNCTION `??HalLedSet::?relay`,00H
        EXTERN `??NLME_GetShortAddr::?relay`
        FUNCTION `??NLME_GetShortAddr::?relay`,00H
        EXTERN `??RegisterForKeys::?relay`
        FUNCTION `??RegisterForKeys::?relay`,00H
        EXTERN `??ZDO_ParseEPListRsp::?relay`
        FUNCTION `??ZDO_ParseEPListRsp::?relay`,00H
        EXTERN `??ZDO_RegisterForZDOMsg::?relay`
        FUNCTION `??ZDO_RegisterForZDOMsg::?relay`,00H
        EXTERN `??ZDP_EndDeviceBindReq::?relay`
        FUNCTION `??ZDP_EndDeviceBindReq::?relay`,00H
        EXTERN `??afRegister::?relay`
        FUNCTION `??afRegister::?relay`,00H
        EXTERN `??osal_mem_free::?relay`
        FUNCTION `??osal_mem_free::?relay`,00H
        EXTERN `??osal_msg_deallocate::?relay`
        FUNCTION `??osal_msg_deallocate::?relay`,00H
        EXTERN `??osal_msg_receive::?relay`
        FUNCTION `??osal_msg_receive::?relay`,00H
        EXTERN `??osal_set_event::?relay`
        FUNCTION `??osal_set_event::?relay`,00H
        EXTERN `??osal_start_timerEx::?relay`
        FUNCTION `??osal_start_timerEx::?relay`,00H
        EXTERN AF_DataRequest
        FUNCTION AF_DataRequest,0202H
        ARGFRAME ISTACK, 0, STACK
        ARGFRAME PSTACK, 0, STACK
        ARGFRAME XSTACK, 21, STACK
        ARGFRAME IOVERLAY, 0, STATIC
        ARGFRAME DOVERLAY, 0, STATIC
        EXTERN HalLcdWriteString
        FUNCTION HalLcdWriteString,0202H
        ARGFRAME ISTACK, 0, STACK
        ARGFRAME PSTACK, 0, STACK
        ARGFRAME XSTACK, 12, STACK
        ARGFRAME IOVERLAY, 0, STATIC
        ARGFRAME DOVERLAY, 0, STATIC
        EXTERN HalLedSet
        FUNCTION HalLedSet,0202H
        ARGFRAME ISTACK, 0, STACK
        ARGFRAME PSTACK, 0, STACK
        ARGFRAME XSTACK, 23, STACK
        ARGFRAME IOVERLAY, 0, STATIC
        ARGFRAME DOVERLAY, 0, STATIC
        EXTERN NLME_GetShortAddr
        FUNCTION NLME_GetShortAddr,0202H
        ARGFRAME ISTACK, 0, STACK
        ARGFRAME PSTACK, 0, STACK
        ARGFRAME XSTACK, 23, STACK
        ARGFRAME IOVERLAY, 0, STATIC
        ARGFRAME DOVERLAY, 0, STATIC
        EXTERN RegisterForKeys
        FUNCTION RegisterForKeys,0202H
        ARGFRAME ISTACK, 0, STACK
        ARGFRAME PSTACK, 0, STACK
        ARGFRAME XSTACK, 9, STACK
        ARGFRAME IOVERLAY, 0, STATIC
        ARGFRAME DOVERLAY, 0, STATIC
        EXTERN ZDO_ParseEPListRsp
        FUNCTION ZDO_ParseEPListRsp,0202H
        ARGFRAME ISTACK, 0, STACK
        ARGFRAME PSTACK, 0, STACK
        ARGFRAME XSTACK, 23, STACK
        ARGFRAME IOVERLAY, 0, STATIC
        ARGFRAME DOVERLAY, 0, STATIC
        EXTERN ZDO_RegisterForZDOMsg
        FUNCTION ZDO_RegisterForZDOMsg,0202H
        ARGFRAME ISTACK, 0, STACK
        ARGFRAME PSTACK, 0, STACK
        ARGFRAME XSTACK, 9, STACK
        ARGFRAME IOVERLAY, 0, STATIC
        ARGFRAME DOVERLAY, 0, STATIC
        EXTERN ZDP_EndDeviceBindReq
        FUNCTION ZDP_EndDeviceBindReq,0202H
        ARGFRAME ISTACK, 0, STACK
        ARGFRAME PSTACK, 0, STACK
        ARGFRAME XSTACK, 32, STACK
        ARGFRAME IOVERLAY, 0, STATIC
        ARGFRAME DOVERLAY, 0, STATIC
        EXTERN afRegister
        FUNCTION afRegister,0202H
        ARGFRAME ISTACK, 0, STACK
        ARGFRAME PSTACK, 0, STACK
        ARGFRAME XSTACK, 9, STACK
        ARGFRAME IOVERLAY, 0, STATIC
        ARGFRAME DOVERLAY, 0, STATIC
        EXTERN osal_mem_free
        FUNCTION osal_mem_free,0202H
        ARGFRAME ISTACK, 0, STACK
        ARGFRAME PSTACK, 0, STACK
        ARGFRAME XSTACK, 23, STACK
        ARGFRAME IOVERLAY, 0, STATIC
        ARGFRAME DOVERLAY, 0, STATIC
        EXTERN osal_msg_deallocate
        FUNCTION osal_msg_deallocate,0202H
        ARGFRAME ISTACK, 0, STACK
        ARGFRAME PSTACK, 0, STACK
        ARGFRAME XSTACK, 23, STACK
        ARGFRAME IOVERLAY, 0, STATIC
        ARGFRAME DOVERLAY, 0, STATIC
        EXTERN osal_msg_receive
        FUNCTION osal_msg_receive,0202H
        ARGFRAME ISTACK, 0, STACK
        ARGFRAME PSTACK, 0, STACK
        ARGFRAME XSTACK, 23, STACK
        ARGFRAME IOVERLAY, 0, STATIC
        ARGFRAME DOVERLAY, 0, STATIC
        EXTERN osal_set_event
        FUNCTION osal_set_event,0202H
        ARGFRAME ISTACK, 0, STACK
        ARGFRAME PSTACK, 0, STACK
        ARGFRAME XSTACK, 23, STACK
        ARGFRAME IOVERLAY, 0, STATIC
        ARGFRAME DOVERLAY, 0, STATIC
        EXTERN osal_start_timerEx
        FUNCTION osal_start_timerEx,0202H
        ARGFRAME ISTACK, 0, STACK
        ARGFRAME PSTACK, 0, STACK
        ARGFRAME XSTACK, 27, STACK
        ARGFRAME IOVERLAY, 0, STATIC
        ARGFRAME DOVERLAY, 0, STATIC

// C:\Users\bsavanovic\Desktop\EndDevice\ZigBeeEndDevice\Projects\zstack\Samples\GenericApp\Source\GenericApp.c
//    1 /******************************************************************************
//    2   Filename:       GenericApp.c
//    3   Revised:        $Date: 2014-09-07 13:36:30 -0700 (Sun, 07 Sep 2014) $
//    4   Revision:       $Revision: 40046 $
//    5 
//    6   Description:    Generic Application (no Profile).
//    7 
//    8 
//    9   Copyright 2004-2014 Texas Instruments Incorporated. All rights reserved.
//   10 
//   11   IMPORTANT: Your use of this Software is limited to those specific rights
//   12   granted under the terms of a software license agreement between the user
//   13   who downloaded the software, his/her employer (which must be your employer)
//   14   and Texas Instruments Incorporated (the "License"). You may not use this
//   15   Software unless you agree to abide by the terms of the License. The License
//   16   limits your use, and you acknowledge, that the Software may not be modified,
//   17   copied or distributed unless embedded on a Texas Instruments microcontroller
//   18   or used solely and exclusively in conjunction with a Texas Instruments radio
//   19   frequency transceiver, which is integrated into your product. Other than for
//   20   the foregoing purpose, you may not use, reproduce, copy, prepare derivative
//   21   works of, modify, distribute, perform, display or sell this Software and/or
//   22   its documentation for any purpose.
//   23 
//   24   YOU FURTHER ACKNOWLEDGE AND AGREE THAT THE SOFTWARE AND DOCUMENTATION ARE
//   25   PROVIDED “AS IS” WITHOUT WARRANTY OF ANY KIND, EITHER EXPRESS OR IMPLIED,
//   26   INCLUDING WITHOUT LIMITATION, ANY WARRANTY OF MERCHANTABILITY, TITLE,
//   27   NON-INFRINGEMENT AND FITNESS FOR A PARTICULAR PURPOSE. IN NO EVENT SHALL
//   28   TEXAS INSTRUMENTS OR ITS LICENSORS BE LIABLE OR OBLIGATED UNDER CONTRACT,
//   29   NEGLIGENCE, STRICT LIABILITY, CONTRIBUTION, BREACH OF WARRANTY, OR OTHER
//   30   LEGAL EQUITABLE THEORY ANY DIRECT OR INDIRECT DAMAGES OR EXPENSES
//   31   INCLUDING BUT NOT LIMITED TO ANY INCIDENTAL, SPECIAL, INDIRECT, PUNITIVE
//   32   OR CONSEQUENTIAL DAMAGES, LOST PROFITS OR LOST DATA, COST OF PROCUREMENT
//   33   OF SUBSTITUTE GOODS, TECHNOLOGY, SERVICES, OR ANY CLAIMS BY THIRD PARTIES
//   34   (INCLUDING BUT NOT LIMITED TO ANY DEFENSE THEREOF), OR OTHER SIMILAR COSTS.
//   35 
//   36   Should you have any questions regarding your right to use this Software,
//   37   contact Texas Instruments Incorporated at www.TI.com.
//   38 ******************************************************************************/
//   39 
//   40 /*********************************************************************
//   41   This application isn't intended to do anything useful - it is
//   42   intended to be a simple example of an application's structure.
//   43 
//   44   This application periodically sends a "Hello World" message to
//   45   another "Generic" application (see 'txMsgDelay'). The application
//   46   will also receive "Hello World" packets.
//   47 
//   48   This application doesn't have a profile, so it handles everything
//   49   directly - by itself.
//   50 
//   51   Key control:
//   52     SW1:  changes the delay between TX packets
//   53     SW2:  initiates end device binding
//   54     SW3:
//   55     SW4:  initiates a match description request
//   56 *********************************************************************/
//   57 
//   58 /*********************************************************************
//   59  * INCLUDES
//   60  */
//   61 #include "OSAL.h"
//   62 #include "AF.h"
//   63 #include "ZDApp.h"
//   64 #include "ZDObject.h"
//   65 #include "ZDProfile.h"
//   66 
//   67 #include "GenericApp.h"
//   68 #include "DebugTrace.h"
//   69 
//   70 #if !defined( WIN32 ) || defined( ZBIT )
//   71   #include "OnBoard.h"

        ASEGN SFR_AN:DATA:NOROOT,080H
// union <unnamed> volatile __sfr _A_P0
_A_P0:
        DATA8
        DS 1

        ASEGN SFR_AN:DATA:NOROOT,0a0H
// union <unnamed> volatile __sfr _A_P2
_A_P2:
        DATA8
        DS 1

        ASEGN SFR_AN:DATA:NOROOT,0f4H
// unsigned char volatile __sfr P1SEL
P1SEL:
        DATA8
        DS 1

        ASEGN SFR_AN:DATA:NOROOT,0f7H
// unsigned char volatile __sfr P2INP
P2INP:
        DATA8
        DS 1

        ASEGN SFR_AN:DATA:NOROOT,0feH
// unsigned char volatile __sfr P1DIR
P1DIR:
        DATA8
        DS 1
//   72 #endif
//   73 
//   74 /* HAL */
//   75 #include "hal_lcd.h"
//   76 #include "hal_led.h"
//   77 #include "hal_key.h"
//   78 #include "hal_uart.h"
//   79 #include "hal_adc.h"
//   80 
//   81 /* RTOS */
//   82 #if defined( IAR_ARMCM3_LM )
//   83 #include "RTOS_App.h"
//   84 #endif
//   85 
//   86 /*********************************************************************
//   87  * MACROS
//   88  */
//   89 
//   90 
//   91 #define GENERICAPP_ENDPOINT           10
//   92 
//   93 #define GENERICAPP_PROFID             0x0F04
//   94 #define GENERICAPP_DEVICEID           0x0001
//   95 #define GENERICAPP_DEVICE_VERSION     0
//   96 #define GENERICAPP_FLAGS              0
//   97 
//   98 #define GENERICAPP_MAX_CLUSTERS       1
//   99 #define GENERICAPP_CLUSTERID          1
//  100 
//  101 
//  102 #define MAX_NUMBER_OF_ENDDEVICES      10
//  103 
//  104 
//  105 // magnetic switch macros
//  106 #define DOOR_CLOSED_DETECTION         P2_0
//  107 #define TRUE                          1
//  108 #define CLOSED                        1
//  109 #define OPENED                        0
//  110 // magnetic switch macros end
//  111 
//  112 #define MOTION_DETECTION_PIN          P1_2  
//  113    
//  114 #define MOTION_SENSOR                 0
//  115 #define MAGNETIC_SENSOR               0
//  116 #define OPTICAL_SENSOR                0
//  117 #define HELLO_WORLD                   1 
//  118 /*********************************************************************
//  119  * CONSTANTS
//  120  */
//  121 
//  122 /*********************************************************************
//  123  * TYPEDEFS
//  124  */
//  125 
//  126 /*********************************************************************
//  127  * GLOBAL VARIABLES
//  128  */
//  129 

        RSEG XDATA_I:XDATA:NOROOT(0)
//  130 uint8 coin = 1;
coin:
        DATA8
        DS 1
        REQUIRE `?<Initializer for coin>`
        REQUIRE __INIT_XDATA_I

        RSEG XDATA_Z:XDATA:NOROOT(0)
        DATA8
//  131 char prevData = 0;
prevData:
        DS 1
        REQUIRE __INIT_XDATA_Z
//  132 
//  133 

        RSEG XDATA_I:XDATA:NOROOT(0)
//  134 uint8 keyPressSW4 = 1;
keyPressSW4:
        DATA8
        DS 1
        REQUIRE `?<Initializer for keyPressSW4>`
        REQUIRE __INIT_XDATA_I
//  135 

        RSEG XDATA_Z:XDATA:NOROOT(0)
        DATA8
//  136 uint8 dataBuffer[10];
dataBuffer:
        DS 10
        REQUIRE __INIT_XDATA_Z
//  137    

        RSEG XDATA_Z:XDATA:NOROOT(0)
        DATA16
//  138 int counter = 0;
counter:
        DS 2
        REQUIRE __INIT_XDATA_Z
//  139 
//  140 

        RSEG XDATA_Z:XDATA:NOROOT(0)
        DATA8
//  141 uint16 shortAddressOfEndDevice[MAX_NUMBER_OF_ENDDEVICES] = {0,0};
shortAddressOfEndDevice:
        DS 20
        REQUIRE __INIT_XDATA_Z

        RSEG XDATA_Z:XDATA:NOROOT(0)
        DATA8
//  142 uint16 SAddr[MAX_NUMBER_OF_ENDDEVICES] = {0,0};
SAddr:
        DS 20
        REQUIRE __INIT_XDATA_Z
//  143 

        RSEG XDATA_Z:XDATA:NOROOT(0)
        DATA8
//  144 uint8 index = 0;
index:
        DS 1
        REQUIRE __INIT_XDATA_Z
//  145 

        RSEG XDATA_Z:XDATA:NOROOT(0)
        DATA16
//  146 int brojac = 0; 
brojac:
        DS 2
        REQUIRE __INIT_XDATA_Z
//  147 
//  148 
//  149 // This list should be filled with Application specific Cluster IDs.

        RSEG XDATA_ROM_C:CONST:REORDER:NOROOT(0)
        DATA16
//  150 const cId_t GenericApp_ClusterList[GENERICAPP_MAX_CLUSTERS] =
GenericApp_ClusterList:
        DW 1
//  151 {
//  152   GENERICAPP_CLUSTERID
//  153 };
//  154 

        RSEG XDATA_ROM_C:CONST:REORDER:NOROOT(0)
        DATA8
//  155 const SimpleDescriptionFormat_t GenericApp_SimpleDesc =
GenericApp_SimpleDesc:
        DB 10
        DATA16
        DW 3844
        DW 1
        DATA8
        DB 0
        DB 1
        DATA16
        DW GenericApp_ClusterList
        DATA8
        DB 1
        DATA16
        DW GenericApp_ClusterList
//  156 {
//  157   GENERICAPP_ENDPOINT,              //  int Endpoint;
//  158   GENERICAPP_PROFID,                //  uint16 AppProfId[2];
//  159   GENERICAPP_DEVICEID,              //  uint16 AppDeviceId[2];
//  160   GENERICAPP_DEVICE_VERSION,        //  int   AppDevVer:4;
//  161   GENERICAPP_FLAGS,                 //  int   AppFlags:4;
//  162   GENERICAPP_MAX_CLUSTERS,          //  byte  AppNumInClusters;
//  163   (cId_t *)GenericApp_ClusterList,  //  byte *pAppInClusterList;
//  164   GENERICAPP_MAX_CLUSTERS,          //  byte  AppNumInClusters;
//  165   (cId_t *)GenericApp_ClusterList   //  byte *pAppInClusterList;
//  166 };
//  167 
//  168 // This is the Endpoint/Interface description.  It is defined here, but
//  169 // filled-in in GenericApp_Init().  Another way to go would be to fill
//  170 // in the structure here and make it a "const" (in code space).  The
//  171 // way it's defined in this sample app it is define in RAM.

        RSEG XDATA_Z:XDATA:NOROOT(0)
        DATA8
//  172 endPointDesc_t GenericApp_epDesc;
GenericApp_epDesc:
        DS 6
        REQUIRE __INIT_XDATA_Z
//  173 
//  174 /*********************************************************************
//  175  * EXTERNAL VARIABLES
//  176  */
//  177 
//  178 /*********************************************************************
//  179  * EXTERNAL FUNCTIONS
//  180  */
//  181 
//  182   extern void uartInit(void);
//  183   extern void uartSend(char);
//  184 
//  185 
//  186 /*********************************************************************
//  187  * LOCAL VARIABLES
//  188  */

        RSEG XDATA_Z:XDATA:NOROOT(0)
        DATA8
//  189 byte GenericApp_TaskID;   // Task ID for internal task/event processing
GenericApp_TaskID:
        DS 1
        REQUIRE __INIT_XDATA_Z
//  190                           // This variable will be received when
//  191                           // GenericApp_Init() is called.
//  192 

        RSEG XDATA_Z:XDATA:NOROOT(0)
        DATA8
//  193 devStates_t GenericApp_NwkState;
GenericApp_NwkState:
        DS 1
        REQUIRE __INIT_XDATA_Z
//  194 

        RSEG XDATA_Z:XDATA:NOROOT(0)
        DATA8
//  195 byte GenericApp_TransID;  // This is the unique message ID (counter)
GenericApp_TransID:
        DS 1
        REQUIRE __INIT_XDATA_Z
//  196 

        RSEG XDATA_Z:XDATA:NOROOT(0)
        DATA8
//  197 afAddrType_t GenericApp_DstAddr;
GenericApp_DstAddr:
        DS 12
        REQUIRE __INIT_XDATA_Z

        RSEG XDATA_Z:XDATA:NOROOT(0)
        DATA8
//  198 afAddrType_t GenericApp_DstAddr1;
GenericApp_DstAddr1:
        DS 12
        REQUIRE __INIT_XDATA_Z

        RSEG XDATA_Z:XDATA:NOROOT(0)
        DATA8
//  199 afAddrType_t GenericApp_DstAddr2;
GenericApp_DstAddr2:
        DS 12
        REQUIRE __INIT_XDATA_Z
//  200 // Number of recieved messages
//  201 static uint16 rxMsgCount;
//  202 
//  203 // Time interval between sending messages

        RSEG XDATA_I:XDATA:NOROOT(0)
//  204 static uint32 txMsgDelay = GENERICAPP_SEND_MSG_TIMEOUT;
txMsgDelay:
        DATA32
        DS 4
        REQUIRE `?<Initializer for txMsgDelay>`
        REQUIRE __INIT_XDATA_I
//  205 
//  206 /*********************************************************************
//  207  * LOCAL FUNCTIONS
//  208  */
//  209 static void GenericApp_ProcessZDOMsgs( zdoIncomingMsg_t *inMsg );
//  210 static void GenericApp_HandleKeys( byte shift, byte keys );
//  211 static void GenericApp_MessageMSGCB( afIncomingMSGPacket_t *pckt );
//  212 
//  213 static void GenericApp_EndPointList(uint16);
//  214 
//  215 static void GenericApp_SendTheMessage( void );
//  216  
//  217 void MagneticSwitch_SendTheMessage( void );
//  218 void MotionSensor_SendTheMessage( void );
//  219 
//  220 
//  221 
//  222 
//  223 #if defined( IAR_ARMCM3_LM )
//  224 static void GenericApp_ProcessRtosMessage( void );
//  225 #endif
//  226 
//  227 /*********************************************************************
//  228  * NETWORK LAYER CALLBACKS
//  229  */
//  230 
//  231 /*********************************************************************
//  232  * PUBLIC FUNCTIONS
//  233  */
//  234 
//  235 /*********************************************************************
//  236  * @fn      GenericApp_Init
//  237  *
//  238  * @brief   Initialization function for the Generic App Task.
//  239  *          This is called during initialization and should contain
//  240  *          any application specific initialization (ie. hardware
//  241  *          initialization/setup, table initialization, power up
//  242  *          notificaiton ... ).
//  243  *
//  244  * @param   task_id - the ID assigned by OSAL.  This ID should be
//  245  *                    used to send messages and set timers.
//  246  *
//  247  * @return  none
//  248  */

        RSEG BANKED_CODE:HUGECODE:NOROOT(0)
//  249 void GenericApp_Init( uint8 task_id )
GenericApp_Init:
          CFI Block cfiBlock0 Using cfiCommon0
          CFI Function GenericApp_Init
        CODE
//  250 {
        FUNCALL GenericApp_Init, afRegister
        LOCFRAME ISTACK, 0, STACK
        LOCFRAME PSTACK, 0, STACK
        LOCFRAME XSTACK, 9, STACK
        LOCFRAME IOVERLAY, 0, STATIC
        LOCFRAME DOVERLAY, 0, STATIC
        ARGFRAME ISTACK, 0, STACK
        ARGFRAME PSTACK, 0, STACK
        ARGFRAME XSTACK, 9, STACK
        ARGFRAME IOVERLAY, 0, STATIC
        ARGFRAME DOVERLAY, 0, STATIC
        FUNCALL GenericApp_Init, RegisterForKeys
        LOCFRAME ISTACK, 0, STACK
        LOCFRAME PSTACK, 0, STACK
        LOCFRAME XSTACK, 9, STACK
        LOCFRAME IOVERLAY, 0, STATIC
        LOCFRAME DOVERLAY, 0, STATIC
        ARGFRAME ISTACK, 0, STACK
        ARGFRAME PSTACK, 0, STACK
        ARGFRAME XSTACK, 9, STACK
        ARGFRAME IOVERLAY, 0, STATIC
        ARGFRAME DOVERLAY, 0, STATIC
        FUNCALL GenericApp_Init, HalLcdWriteString
        LOCFRAME ISTACK, 0, STACK
        LOCFRAME PSTACK, 0, STACK
        LOCFRAME XSTACK, 9, STACK
        LOCFRAME IOVERLAY, 0, STATIC
        LOCFRAME DOVERLAY, 0, STATIC
        ARGFRAME ISTACK, 0, STACK
        ARGFRAME PSTACK, 0, STACK
        ARGFRAME XSTACK, 9, STACK
        ARGFRAME IOVERLAY, 0, STATIC
        ARGFRAME DOVERLAY, 0, STATIC
        FUNCALL GenericApp_Init, ZDO_RegisterForZDOMsg
        LOCFRAME ISTACK, 0, STACK
        LOCFRAME PSTACK, 0, STACK
        LOCFRAME XSTACK, 9, STACK
        LOCFRAME IOVERLAY, 0, STATIC
        LOCFRAME DOVERLAY, 0, STATIC
        ARGFRAME ISTACK, 0, STACK
        ARGFRAME PSTACK, 0, STACK
        ARGFRAME XSTACK, 9, STACK
        ARGFRAME IOVERLAY, 0, STATIC
        ARGFRAME DOVERLAY, 0, STATIC
        FUNCALL GenericApp_Init, ZDO_RegisterForZDOMsg
        LOCFRAME ISTACK, 0, STACK
        LOCFRAME PSTACK, 0, STACK
        LOCFRAME XSTACK, 9, STACK
        LOCFRAME IOVERLAY, 0, STATIC
        LOCFRAME DOVERLAY, 0, STATIC
        ARGFRAME ISTACK, 0, STACK
        ARGFRAME PSTACK, 0, STACK
        ARGFRAME XSTACK, 9, STACK
        ARGFRAME IOVERLAY, 0, STATIC
        ARGFRAME DOVERLAY, 0, STATIC
        MOV     A,#-0x9
        LCALL   ?BANKED_ENTER_XDATA
          CFI DPH0 load(1, XDATA, add(CFA_XSP16, literal(-1)))
          CFI DPL0 load(1, XDATA, add(CFA_XSP16, literal(-2)))
          CFI ?BRET_EXT load(1, XDATA, add(CFA_XSP16, literal(-3)))
          CFI ?RET_HIGH load(1, XDATA, add(CFA_XSP16, literal(-4)))
          CFI ?RET_LOW load(1, XDATA, add(CFA_XSP16, literal(-5)))
          CFI R7 load(1, XDATA, add(CFA_XSP16, literal(-6)))
          CFI V0 load(1, XDATA, add(CFA_XSP16, literal(-7)))
          CFI VB load(1, XDATA, add(CFA_XSP16, literal(-8)))
          CFI R6 load(1, XDATA, add(CFA_XSP16, literal(-9)))
          CFI CFA_SP SP+0
          CFI CFA_XSP16 add(XSP16, 9)
        ; Saved register size: 9
        ; Auto size: 0
        MOV     A,R1
//  251   GenericApp_TaskID = task_id;
        MOV     DPTR,#GenericApp_TaskID
        MOVX    @DPTR,A
//  252   GenericApp_NwkState = DEV_INIT;
        MOV     DPTR,#GenericApp_NwkState
        MOV     A,#0x1
        MOVX    @DPTR,A
//  253   GenericApp_TransID = 0;
        MOV     DPTR,#GenericApp_TransID
        CLR     A
        MOVX    @DPTR,A
//  254   
//  255   // Device hardware initialization can be added here or in main() (Zmain.c).
//  256   // If the hardware is application specific - add it here.
//  257   // If the hardware is other parts of the device add it in main().
//  258 
//  259   GenericApp_DstAddr.addrMode = (afAddrMode_t)Addr16Bit;
        MOV     DPTR,#GenericApp_DstAddr + 8
        MOV     A,#0x2
        MOVX    @DPTR,A
//  260   GenericApp_DstAddr.endPoint = GENERICAPP_ENDPOINT;
        INC     DPTR
        MOV     A,#0xa
        MOVX    @DPTR,A
//  261   //This is address of Coordinator
//  262   GenericApp_DstAddr.addr.shortAddr = 0x0000;                                   
        MOV     DPTR,#GenericApp_DstAddr
        CLR     A
        MOVX    @DPTR,A
        INC     DPTR
        MOVX    @DPTR,A
//  263 
//  264   // Fill out the endpoint description.
//  265   GenericApp_epDesc.endPoint = GENERICAPP_ENDPOINT;
        MOV     DPTR,#GenericApp_epDesc
        MOV     A,#0xa
        MOVX    @DPTR,A
//  266   GenericApp_epDesc.task_id = &GenericApp_TaskID;
        INC     DPTR
        MOV     A,#GenericApp_TaskID & 0xff
        MOVX    @DPTR,A
        INC     DPTR
        MOV     A,#(GenericApp_TaskID >> 8) & 0xff
        MOVX    @DPTR,A
//  267   GenericApp_epDesc.simpleDesc
//  268             = (SimpleDescriptionFormat_t *)&GenericApp_SimpleDesc;
        INC     DPTR
        MOV     A,#GenericApp_SimpleDesc & 0xff
        MOVX    @DPTR,A
        INC     DPTR
        MOV     A,#(GenericApp_SimpleDesc >> 8) & 0xff
        MOVX    @DPTR,A
//  269   GenericApp_epDesc.latencyReq = noLatencyReqs;
        INC     DPTR
        CLR     A
        MOVX    @DPTR,A
//  270 
//  271   // Register the endpoint description with the AF
//  272   afRegister( &GenericApp_epDesc );
        ; Setup parameters for call to function afRegister
        MOV     R2,#GenericApp_epDesc & 0xff
        MOV     R3,#(GenericApp_epDesc >> 8) & 0xff
        LCALL   `??afRegister::?relay`; Banked call to: afRegister
//  273 
//  274   // Register for all key events - This app will handle all key events
//  275   RegisterForKeys( GenericApp_TaskID );
        ; Setup parameters for call to function RegisterForKeys
        MOV     DPTR,#GenericApp_TaskID
        MOVX    A,@DPTR
        MOV     R1,A
        LCALL   `??RegisterForKeys::?relay`; Banked call to: RegisterForKeys
//  276 
//  277   // Update the display
//  278 #if defined ( LCD_SUPPORTED )
//  279   HalLcdWriteString( "GenericApp", HAL_LCD_LINE_1 );
        ; Setup parameters for call to function HalLcdWriteString
        MOV     R1,#0x1
        MOV     R2,#`?<Constant "GenericApp">` & 0xff
        MOV     R3,#(`?<Constant "GenericApp">` >> 8) & 0xff
        LCALL   `??HalLcdWriteString::?relay`; Banked call to: HalLcdWriteString
//  280 #endif
//  281 
//  282   ZDO_RegisterForZDOMsg( GenericApp_TaskID, End_Device_Bind_rsp );
        ; Setup parameters for call to function ZDO_RegisterForZDOMsg
        MOV     R2,#0x20
        MOV     R3,#-0x80
        MOV     DPTR,#GenericApp_TaskID
        MOVX    A,@DPTR
        MOV     R1,A
        LCALL   `??ZDO_RegisterForZDOMsg::?relay`; Banked call to: ZDO_RegisterForZDOMsg
//  283   ZDO_RegisterForZDOMsg( GenericApp_TaskID, Match_Desc_rsp );
        ; Setup parameters for call to function ZDO_RegisterForZDOMsg
        MOV     R2,#0x6
        MOV     R3,#-0x80
        MOV     DPTR,#GenericApp_TaskID
        MOVX    A,@DPTR
        MOV     R1,A
        LCALL   `??ZDO_RegisterForZDOMsg::?relay`; Banked call to: ZDO_RegisterForZDOMsg
//  284 
//  285 #if defined( IAR_ARMCM3_LM )
//  286   // Register this task with RTOS task initiator
//  287   RTOS_RegisterApp( task_id, GENERICAPP_RTOS_MSG_EVT );
//  288 #endif
//  289 }
        MOV     R7,#0x1
        LJMP    ?BANKED_LEAVE_XDATA
          CFI EndBlock cfiBlock0
//  290 /*********************************************************************
//  291  * @fn      GenericApp_EndPointList
//  292  *
//  293  * @brief   Get's short address of end device and put in the end device 
//  294             array
//  295  *
//  296  * @param   shAddr  - Short Address of connected End Device
//  297  * 
//  298  * @return  none
//  299  */
//  300 static void GenericApp_EndPointList(uint16 shAddr)
//  301 {
//  302  
//  303   if(index > MAX_NUMBER_OF_ENDDEVICES)
//  304   {
//  305     HalLcdWriteString("Max number of end devices overflow.",0);
//  306   }
//  307   else
//  308   {
//  309     shortAddressOfEndDevice[index];
//  310     index++;
//  311   }
//  312   
//  313   
//  314 }
//  315 /*********************************************************************
//  316  * @fn      GenericApp_ProcessEvent
//  317  *
//  318  * @brief   Generic Application Task event processor.  This function
//  319  *          is called to process all events for the task.  Events
//  320  *          include timers, messages and any other user defined events.
//  321  *
//  322  * @param   task_id  - The OSAL assigned task ID.
//  323  * @param   events - events to process.  This is a bit map and can
//  324  *                   contain more than one event.
//  325  *
//  326  * @return  none
//  327  */

        RSEG BANKED_CODE:HUGECODE:NOROOT(0)
//  328 uint16 GenericApp_ProcessEvent( uint8 task_id, uint16 events )
GenericApp_ProcessEvent:
          CFI Block cfiBlock1 Using cfiCommon0
          CFI Function GenericApp_ProcessEvent
        CODE
//  329 {
        FUNCALL GenericApp_ProcessEvent, osal_msg_receive
        LOCFRAME ISTACK, 0, STACK
        LOCFRAME PSTACK, 0, STACK
        LOCFRAME XSTACK, 23, STACK
        LOCFRAME IOVERLAY, 0, STATIC
        LOCFRAME DOVERLAY, 0, STATIC
        ARGFRAME ISTACK, 0, STACK
        ARGFRAME PSTACK, 0, STACK
        ARGFRAME XSTACK, 23, STACK
        ARGFRAME IOVERLAY, 0, STATIC
        ARGFRAME DOVERLAY, 0, STATIC
        FUNCALL GenericApp_ProcessEvent, osal_set_event
        LOCFRAME ISTACK, 0, STACK
        LOCFRAME PSTACK, 0, STACK
        LOCFRAME XSTACK, 23, STACK
        LOCFRAME IOVERLAY, 0, STATIC
        LOCFRAME DOVERLAY, 0, STATIC
        ARGFRAME ISTACK, 0, STACK
        ARGFRAME PSTACK, 0, STACK
        ARGFRAME XSTACK, 23, STACK
        ARGFRAME IOVERLAY, 0, STATIC
        ARGFRAME DOVERLAY, 0, STATIC
        FUNCALL GenericApp_ProcessEvent, osal_msg_deallocate
        LOCFRAME ISTACK, 0, STACK
        LOCFRAME PSTACK, 0, STACK
        LOCFRAME XSTACK, 23, STACK
        LOCFRAME IOVERLAY, 0, STATIC
        LOCFRAME DOVERLAY, 0, STATIC
        ARGFRAME ISTACK, 0, STACK
        ARGFRAME PSTACK, 0, STACK
        ARGFRAME XSTACK, 23, STACK
        ARGFRAME IOVERLAY, 0, STATIC
        ARGFRAME DOVERLAY, 0, STATIC
        FUNCALL GenericApp_ProcessEvent, osal_msg_receive
        LOCFRAME ISTACK, 0, STACK
        LOCFRAME PSTACK, 0, STACK
        LOCFRAME XSTACK, 23, STACK
        LOCFRAME IOVERLAY, 0, STATIC
        LOCFRAME DOVERLAY, 0, STATIC
        ARGFRAME ISTACK, 0, STACK
        ARGFRAME PSTACK, 0, STACK
        ARGFRAME XSTACK, 23, STACK
        ARGFRAME IOVERLAY, 0, STATIC
        ARGFRAME DOVERLAY, 0, STATIC
        FUNCALL GenericApp_ProcessEvent, ZDO_ParseEPListRsp
        LOCFRAME ISTACK, 0, STACK
        LOCFRAME PSTACK, 0, STACK
        LOCFRAME XSTACK, 23, STACK
        LOCFRAME IOVERLAY, 0, STATIC
        LOCFRAME DOVERLAY, 0, STATIC
        ARGFRAME ISTACK, 0, STACK
        ARGFRAME PSTACK, 0, STACK
        ARGFRAME XSTACK, 23, STACK
        ARGFRAME IOVERLAY, 0, STATIC
        ARGFRAME DOVERLAY, 0, STATIC
        FUNCALL GenericApp_ProcessEvent, HalLedSet
        LOCFRAME ISTACK, 0, STACK
        LOCFRAME PSTACK, 0, STACK
        LOCFRAME XSTACK, 23, STACK
        LOCFRAME IOVERLAY, 0, STATIC
        LOCFRAME DOVERLAY, 0, STATIC
        ARGFRAME ISTACK, 0, STACK
        ARGFRAME PSTACK, 0, STACK
        ARGFRAME XSTACK, 23, STACK
        ARGFRAME IOVERLAY, 0, STATIC
        ARGFRAME DOVERLAY, 0, STATIC
        FUNCALL GenericApp_ProcessEvent, osal_mem_free
        LOCFRAME ISTACK, 0, STACK
        LOCFRAME PSTACK, 0, STACK
        LOCFRAME XSTACK, 23, STACK
        LOCFRAME IOVERLAY, 0, STATIC
        LOCFRAME DOVERLAY, 0, STATIC
        ARGFRAME ISTACK, 0, STACK
        ARGFRAME PSTACK, 0, STACK
        ARGFRAME XSTACK, 23, STACK
        ARGFRAME IOVERLAY, 0, STATIC
        ARGFRAME DOVERLAY, 0, STATIC
        FUNCALL GenericApp_ProcessEvent, HalLedSet
        LOCFRAME ISTACK, 0, STACK
        LOCFRAME PSTACK, 0, STACK
        LOCFRAME XSTACK, 23, STACK
        LOCFRAME IOVERLAY, 0, STATIC
        LOCFRAME DOVERLAY, 0, STATIC
        ARGFRAME ISTACK, 0, STACK
        ARGFRAME PSTACK, 0, STACK
        ARGFRAME XSTACK, 23, STACK
        ARGFRAME IOVERLAY, 0, STATIC
        ARGFRAME DOVERLAY, 0, STATIC
        FUNCALL GenericApp_ProcessEvent, HalLedSet
        LOCFRAME ISTACK, 0, STACK
        LOCFRAME PSTACK, 0, STACK
        LOCFRAME XSTACK, 23, STACK
        LOCFRAME IOVERLAY, 0, STATIC
        LOCFRAME DOVERLAY, 0, STATIC
        ARGFRAME ISTACK, 0, STACK
        ARGFRAME PSTACK, 0, STACK
        ARGFRAME XSTACK, 23, STACK
        ARGFRAME IOVERLAY, 0, STATIC
        ARGFRAME DOVERLAY, 0, STATIC
        FUNCALL GenericApp_ProcessEvent, osal_start_timerEx
        LOCFRAME ISTACK, 0, STACK
        LOCFRAME PSTACK, 0, STACK
        LOCFRAME XSTACK, 27, STACK
        LOCFRAME IOVERLAY, 0, STATIC
        LOCFRAME DOVERLAY, 0, STATIC
        ARGFRAME ISTACK, 0, STACK
        ARGFRAME PSTACK, 0, STACK
        ARGFRAME XSTACK, 27, STACK
        ARGFRAME IOVERLAY, 0, STATIC
        ARGFRAME DOVERLAY, 0, STATIC
        FUNCALL GenericApp_ProcessEvent, NLME_GetShortAddr
        LOCFRAME ISTACK, 0, STACK
        LOCFRAME PSTACK, 0, STACK
        LOCFRAME XSTACK, 23, STACK
        LOCFRAME IOVERLAY, 0, STATIC
        LOCFRAME DOVERLAY, 0, STATIC
        ARGFRAME ISTACK, 0, STACK
        ARGFRAME PSTACK, 0, STACK
        ARGFRAME XSTACK, 23, STACK
        ARGFRAME IOVERLAY, 0, STATIC
        ARGFRAME DOVERLAY, 0, STATIC
        FUNCALL GenericApp_ProcessEvent, ZDP_EndDeviceBindReq
        LOCFRAME ISTACK, 0, STACK
        LOCFRAME PSTACK, 0, STACK
        LOCFRAME XSTACK, 32, STACK
        LOCFRAME IOVERLAY, 0, STATIC
        LOCFRAME DOVERLAY, 0, STATIC
        ARGFRAME ISTACK, 0, STACK
        ARGFRAME PSTACK, 0, STACK
        ARGFRAME XSTACK, 32, STACK
        ARGFRAME IOVERLAY, 0, STATIC
        ARGFRAME DOVERLAY, 0, STATIC
        FUNCALL GenericApp_ProcessEvent, osal_set_event
        LOCFRAME ISTACK, 0, STACK
        LOCFRAME PSTACK, 0, STACK
        LOCFRAME XSTACK, 23, STACK
        LOCFRAME IOVERLAY, 0, STATIC
        LOCFRAME DOVERLAY, 0, STATIC
        ARGFRAME ISTACK, 0, STACK
        ARGFRAME PSTACK, 0, STACK
        ARGFRAME XSTACK, 23, STACK
        ARGFRAME IOVERLAY, 0, STATIC
        ARGFRAME DOVERLAY, 0, STATIC
        REQUIRE ?V0
        REQUIRE ?V1
        REQUIRE ?V2
        REQUIRE ?V3
        REQUIRE ?V4
        REQUIRE ?V5
        MOV     A,#-0xe
        LCALL   ?BANKED_ENTER_XDATA
          CFI DPH0 load(1, XDATA, add(CFA_XSP16, literal(-1)))
          CFI DPL0 load(1, XDATA, add(CFA_XSP16, literal(-2)))
          CFI ?BRET_EXT load(1, XDATA, add(CFA_XSP16, literal(-3)))
          CFI ?RET_HIGH load(1, XDATA, add(CFA_XSP16, literal(-4)))
          CFI ?RET_LOW load(1, XDATA, add(CFA_XSP16, literal(-5)))
          CFI R7 load(1, XDATA, add(CFA_XSP16, literal(-6)))
          CFI V5 load(1, XDATA, add(CFA_XSP16, literal(-7)))
          CFI V4 load(1, XDATA, add(CFA_XSP16, literal(-8)))
          CFI V3 load(1, XDATA, add(CFA_XSP16, literal(-9)))
          CFI V2 load(1, XDATA, add(CFA_XSP16, literal(-10)))
          CFI V1 load(1, XDATA, add(CFA_XSP16, literal(-11)))
          CFI V0 load(1, XDATA, add(CFA_XSP16, literal(-12)))
          CFI VB load(1, XDATA, add(CFA_XSP16, literal(-13)))
          CFI R6 load(1, XDATA, add(CFA_XSP16, literal(-14)))
          CFI CFA_SP SP+0
          CFI CFA_XSP16 add(XSP16, 14)
        ; Saved register size: 14
        ; Auto size: 9
        MOV     A,#-0x9
        LCALL   ?ALLOC_XSTACK8
          CFI CFA_XSP16 add(XSP16, 23)
        MOV     ?V0,R2
        MOV     ?V1,R3
//  330   afIncomingMSGPacket_t *MSGpkt;
//  331   afDataConfirm_t *afDataConfirm;
//  332   zAddrType_t dstAddr;
//  333 
//  334     char shAddr[5];
//  335     shAddr[4] = '\0';
//  336     
//  337     uint8 i;
//  338     uint16 shortAdrress;
//  339   // Data Confirmation message fields
//  340   byte sentEP;
//  341   ZStatus_t sentStatus;
//  342   byte sentTransID;       // This should match the value sent
//  343   (void)task_id;  // Intentionally unreferenced parameter
//  344 
//  345   if ( events & SYS_EVENT_MSG )
        MOV     A,R3
        ANL     A,#0x80
        JNZ     $+5
        LJMP    ??GenericApp_ProcessEvent_0 & 0xFFFF
//  346   {
//  347     MSGpkt = (afIncomingMSGPacket_t *)osal_msg_receive( GenericApp_TaskID );
        ; Setup parameters for call to function osal_msg_receive
        SJMP    ??GenericApp_ProcessEvent_1
//  348     
//  349     while ( MSGpkt )
//  350     {
//  351       switch ( MSGpkt->hdr.event )
//  352       {
//  353         case ZDO_CB_MSG:
//  354           
//  355           GenericApp_ProcessZDOMsgs( (zdoIncomingMsg_t *)MSGpkt );
//  356           
//  357           break;
//  358 
//  359         case KEY_CHANGE:
//  360   
//  361           // GenericApp_HandleKeys( ((keyChange_t *)MSGpkt)->state, ((keyChange_t *)MSGpkt)->keys );
//  362           break;
//  363 
//  364         case AF_DATA_CONFIRM_CMD:
//  365           // This message is received as a confirmation of a data packet sent.
//  366           // The status is of ZStatus_t type [defined in ZComDef.h]
//  367           // The message fields are defined in AF.h
//  368          
//  369           afDataConfirm = (afDataConfirm_t *)MSGpkt;
//  370 
//  371           sentEP = afDataConfirm->endpoint;
//  372           (void)sentEP;  // This info not used now
//  373           sentTransID = afDataConfirm->transID;
//  374           (void)sentTransID;  // This info not used now
//  375 
//  376           sentStatus = afDataConfirm->hdr.status;
//  377           // Action taken when confirmation is received.
//  378           if ( sentStatus != ZSuccess )
//  379           {
//  380             // The data wasn't delivered -- Do something
//  381           }
//  382           break;
//  383 
//  384         case AF_INCOMING_MSG_CMD:
//  385           
//  386          //Receive "The" Message
//  387          //GenericApp_MessageMSGCB( MSGpkt );
//  388          
//  389 
//  390           break;
//  391 
//  392         case ZDO_STATE_CHANGE:
//  393            
//  394         
//  395           
//  396           GenericApp_NwkState = (devStates_t)(MSGpkt->hdr.status);
//  397           if ( (GenericApp_NwkState == DEV_ZB_COORD) ||
//  398                (GenericApp_NwkState == DEV_ROUTER) ||
//  399                (GenericApp_NwkState == DEV_END_DEVICE) )
//  400           {
//  401             
//  402            
//  403             // Start sending "the" message in a regular interval.
//  404             osal_start_timerEx( GenericApp_TaskID,
//  405                                 GENERICAPP_SEND_MSG_EVT,
//  406                                 txMsgDelay );
//  407             
//  408 
//  409           }
//  410                       
//  411           break;
//  412 
//  413         default:
//  414            
//  415           
//  416             osal_set_event(GenericApp_TaskID,GENERICAPP_SEND_MSG_EVT);
??GenericApp_ProcessEvent_2:
        ; Setup parameters for call to function osal_set_event
        MOV     R2,#0x1
        MOV     R3,#0x0
        MOV     DPTR,#GenericApp_TaskID
        MOVX    A,@DPTR
        MOV     R1,A
        LCALL   `??osal_set_event::?relay`; Banked call to: osal_set_event
//  417            break;
//  418       }
//  419 
//  420       // Release the memory
//  421       osal_msg_deallocate( (uint8 *)MSGpkt );
??GenericApp_ProcessEvent_3:
        ; Setup parameters for call to function osal_msg_deallocate
        MOV     A,R6
        MOV     R2,A
        MOV     A,R7
        MOV     R3,A
        LCALL   `??osal_msg_deallocate::?relay`; Banked call to: osal_msg_deallocate
//  422 
//  423       // Next
//  424       MSGpkt = (afIncomingMSGPacket_t *)osal_msg_receive( GenericApp_TaskID );
        ; Setup parameters for call to function osal_msg_receive
??GenericApp_ProcessEvent_1:
        MOV     DPTR,#GenericApp_TaskID
        MOVX    A,@DPTR
        MOV     R1,A
        LCALL   `??osal_msg_receive::?relay`; Banked call to: osal_msg_receive
        MOV     ?V2,R2
        MOV     ?V3,R3
        MOV     R6,?V2
        MOV     R7,?V3
        MOV     A,R6
        ORL     A,R7
        JNZ     $+5
        LJMP    ??GenericApp_ProcessEvent_4 & 0xFFFF
        MOV     DPL,R6
        MOV     DPH,R7
        MOVX    A,@DPTR
        ADD     A,#-0x1a
        JZ      ??GenericApp_ProcessEvent_3
        ADD     A,#0x5a
        JZ      ??GenericApp_ProcessEvent_3
        ADD     A,#-0x11
        JNZ     $+5
        LJMP    ??GenericApp_ProcessEvent_5 & 0xFFFF
        ADD     A,#-0x2
        JZ      ??GenericApp_ProcessEvent_6
        ADD     A,#-0x2a
        JZ      ??GenericApp_ProcessEvent_3
        SJMP    ??GenericApp_ProcessEvent_2
??GenericApp_ProcessEvent_6:
        MOV     A,R6
        ADD     A,#0xc
        MOV     DPL,A
        CLR     A
        ADDC    A,R7
        MOV     DPH,A
        MOVX    A,@DPTR
        MOV     ?V2,A
        INC     DPTR
        MOVX    A,@DPTR
        MOV     ?V3,A
        MOV     R0,#?V2
        LCALL   ?US_SWITCH_SPARSE
`?<Jumptable for GenericApp_ProcessEvent>_0`:
        DATA
        DATA16
        DATA
        DATA16
        DATA
        DATA16
        DW        0
        DATA
        DATA16
        DATA
        DATA16
        DATA
        DATA16
        DW        2
        DATA
        DATA16
        DATA
        DATA16
        DATA
        DATA16
        DW        32774
        DATA
        DATA16
        DATA
        DATA16
        DATA
        DATA16
        DW        ??GenericApp_ProcessEvent_7
        DATA
        DATA16
        DATA
        DATA16
        DATA
        DATA16
        DW        32800
        DATA
        DATA16
        DATA
        DATA16
        DATA
        DATA16
        DW        ??GenericApp_ProcessEvent_8
        DATA
        DATA16
        DATA
        DATA16
        DW        ??GenericApp_ProcessEvent_3
        CODE
??GenericApp_ProcessEvent_7:
        ; Setup parameters for call to function ZDO_ParseEPListRsp
        MOV     A,R6
        MOV     R2,A
        MOV     A,R7
        MOV     R3,A
        LCALL   `??ZDO_ParseEPListRsp::?relay`; Banked call to: ZDO_ParseEPListRsp
        MOV     ?V2,R2
        MOV     ?V3,R3
        MOV     A,R2
        ORL     A,?V3
        JZ      ??GenericApp_ProcessEvent_3
        MOV     DPL,R2
        MOV     DPH,R3
        MOVX    A,@DPTR
        JNZ     ??GenericApp_ProcessEvent_9
        INC     DPTR
        INC     DPTR
        INC     DPTR
        MOVX    A,@DPTR
        JZ      ??GenericApp_ProcessEvent_9
        MOV     DPTR,#GenericApp_DstAddr + 8
        MOV     A,#0x2
        MOVX    @DPTR,A
        MOV     DPL,R2
        MOV     DPH,R3
        INC     DPTR
        MOVX    A,@DPTR
        MOV     R0,A
        INC     DPTR
        MOVX    A,@DPTR
        MOV     R1,A
        MOV     DPTR,#GenericApp_DstAddr
        MOV     A,R0
        MOVX    @DPTR,A
        INC     DPTR
        MOV     A,R1
        MOVX    @DPTR,A
        MOV     DPL,R2
        MOV     DPH,R3
        INC     DPTR
        INC     DPTR
        INC     DPTR
        INC     DPTR
        MOVX    A,@DPTR
        MOV     DPTR,#GenericApp_DstAddr + 9
        MOVX    @DPTR,A
        ; Setup parameters for call to function HalLedSet
        MOV     R2,#0x1
        MOV     R1,#0x8
        LCALL   `??HalLedSet::?relay`; Banked call to: HalLedSet
??GenericApp_ProcessEvent_9:
        ; Setup parameters for call to function osal_mem_free
        MOV     R2,?V2
        MOV     R3,?V3
        LCALL   `??osal_mem_free::?relay`; Banked call to: osal_mem_free
        LJMP    ??GenericApp_ProcessEvent_3 & 0xFFFF
??GenericApp_ProcessEvent_8:
        MOV     A,R6
        ADD     A,#0x13
        MOV     DPL,A
        CLR     A
        ADDC    A,R7
        MOV     DPH,A
        MOVX    A,@DPTR
        MOV     R0,A
        INC     DPTR
        MOVX    A,@DPTR
        MOV     DPH,A
        MOV     DPL,R0
        MOVX    A,@DPTR
        JNZ     ??GenericApp_ProcessEvent_10
        ; Setup parameters for call to function HalLedSet
        MOV     R2,#0x1
??GenericApp_ProcessEvent_11:
        MOV     R1,#0x8
        LCALL   `??HalLedSet::?relay`; Banked call to: HalLedSet
        LJMP    ??GenericApp_ProcessEvent_3 & 0xFFFF
??GenericApp_ProcessEvent_10:
        ; Setup parameters for call to function HalLedSet
        MOV     R2,#0x4
        SJMP    ??GenericApp_ProcessEvent_11
??GenericApp_ProcessEvent_5:
        INC     DPTR
        MOVX    A,@DPTR
        MOV     DPTR,#GenericApp_NwkState
        MOVX    @DPTR,A
        XRL     A,#0x9
        JZ      ??GenericApp_ProcessEvent_12
        MOVX    A,@DPTR
        XRL     A,#0x7
        JZ      ??GenericApp_ProcessEvent_12
        MOVX    A,@DPTR
        XRL     A,#0x6
        JZ      $+5
        LJMP    ??GenericApp_ProcessEvent_3 & 0xFFFF
??GenericApp_ProcessEvent_12:
        ; Setup parameters for call to function osal_start_timerEx
        MOV     DPTR,#txMsgDelay
        LCALL   ?PUSH_XSTACK8_X_FOUR
          CFI CFA_XSP16 add(XSP16, 27)
        MOV     R2,#0x1
        MOV     R3,#0x0
        MOV     DPTR,#GenericApp_TaskID
        MOVX    A,@DPTR
        MOV     R1,A
        LCALL   `??osal_start_timerEx::?relay`; Banked call to: osal_start_timerEx
        MOV     A,#0x4
        LCALL   ?DEALLOC_XSTACK8
          CFI CFA_XSP16 add(XSP16, 23)
        LJMP    ??GenericApp_ProcessEvent_3 & 0xFFFF
//  425         
//  426     }
//  427 
//  428     // return unprocessed events
//  429     return (events ^ SYS_EVENT_MSG);
??GenericApp_ProcessEvent_4:
        MOV     R2,?V0
        MOV     A,?V1
        XRL     A,#0x80
        MOV     R3,A
        LJMP    ??GenericApp_ProcessEvent_13 & 0xFFFF
//  430   }
//  431 
//  432   // Send a message out - This event is generated by a timer
//  433   //  (setup in GenericApp_Init()).
//  434   if ( events & GENERICAPP_SEND_MSG_EVT )
??GenericApp_ProcessEvent_0:
        MOV     A,R2
        MOV     C,0xE0 /* A   */.0
        JNC     ??GenericApp_ProcessEvent_14
//  435   {
//  436   
//  437     if(keyPressSW4)
        MOV     DPTR,#keyPressSW4
        MOVX    A,@DPTR
        JZ      ??GenericApp_ProcessEvent_15
//  438     {
//  439      /*
//  440       dstAddr.addrMode = Addr16Bit;
//  441       dstAddr.addr.shortAddr = NWK_BROADCAST_SHORTADDR_DEVALL;
//  442       ZDP_MatchDescReq( &dstAddr,NWK_BROADCAST_SHORTADDR_DEVALL,
//  443                         GENERICAPP_PROFID,
//  444                         GENERICAPP_MAX_CLUSTERS, (cId_t *)GenericApp_ClusterList,
//  445                         GENERICAPP_MAX_CLUSTERS, (cId_t *)GenericApp_ClusterList,
//  446                         FALSE );
//  447      
//  448    
//  449      */ 
//  450       
//  451       dstAddr.addrMode = Addr16Bit;
        MOV     A,#0x8
        LCALL   ?XSTACK_DISP0_8
        MOV     A,#0x2
        MOVX    @DPTR,A
//  452       dstAddr.addr.shortAddr = NLME_GetShortAddr();
        ; Setup parameters for call to function NLME_GetShortAddr
        LCALL   `??NLME_GetShortAddr::?relay`; Banked call to: NLME_GetShortAddr
        MOV     DPL,?XSP + 0
        MOV     DPH,?XSP + 1
        MOV     A,R2
        MOVX    @DPTR,A
        INC     DPTR
        MOV     A,R3
        MOVX    @DPTR,A
//  453       ZDP_EndDeviceBindReq( &dstAddr, 0x0000,
//  454                             GenericApp_epDesc.endPoint,
//  455                             GENERICAPP_PROFID,
//  456                             GENERICAPP_MAX_CLUSTERS, (cId_t *)GenericApp_ClusterList,
//  457                             GENERICAPP_MAX_CLUSTERS, (cId_t *)GenericApp_ClusterList,
//  458                             FALSE );
        MOV     ?V2,#GenericApp_ClusterList & 0xff
        MOV     ?V3,#(GenericApp_ClusterList >> 8) & 0xff
        ; Setup parameters for call to function ZDP_EndDeviceBindReq
        MOV     ?V4,#0x0
        MOV     R0,#?V4
        LCALL   ?PUSH_XSTACK_I_ONE
          CFI CFA_XSP16 add(XSP16, 24)
        MOV     R0,#?V2
        LCALL   ?PUSH_XSTACK_I_TWO
          CFI CFA_XSP16 add(XSP16, 26)
        MOV     ?V4,#0x1
        MOV     R0,#?V4
        LCALL   ?PUSH_XSTACK_I_ONE
          CFI CFA_XSP16 add(XSP16, 27)
        MOV     R0,#?V2
        LCALL   ?PUSH_XSTACK_I_TWO
          CFI CFA_XSP16 add(XSP16, 29)
        MOV     ?V2,#0x1
        MOV     R0,#?V2
        LCALL   ?PUSH_XSTACK_I_ONE
          CFI CFA_XSP16 add(XSP16, 30)
        MOV     ?V2,#0x4
        MOV     ?V3,#0xf
        MOV     R0,#?V2
        LCALL   ?PUSH_XSTACK_I_TWO
          CFI CFA_XSP16 add(XSP16, 32)
        MOV     DPTR,#GenericApp_epDesc
        MOVX    A,@DPTR
        MOV     R1,A
        MOV     R4,#0x0
        MOV     R5,#0x0
        MOV     A,#0x9
        LCALL   ?XSTACK_DISP101_8
        LCALL   `??ZDP_EndDeviceBindReq::?relay`; Banked call to: ZDP_EndDeviceBindReq
        MOV     A,#0x9
        LCALL   ?DEALLOC_XSTACK8
          CFI CFA_XSP16 add(XSP16, 23)
//  459       
//  460      
//  461      
//  462       
//  463       keyPressSW4 = 0;
        MOV     DPTR,#keyPressSW4
        CLR     A
        MOVX    @DPTR,A
//  464       
//  465       osal_set_event(GenericApp_TaskID,GENERICAPP_SEND_MSG_EVT);
        ; Setup parameters for call to function osal_set_event
        MOV     R2,#0x1
        MOV     R3,A
        MOV     DPTR,#GenericApp_TaskID
        MOVX    A,@DPTR
        MOV     R1,A
        LCALL   `??osal_set_event::?relay`; Banked call to: osal_set_event
//  466       
//  467     }
//  468     else
//  469     {
//  470      
//  471       
//  472     // Send "the" message
//  473     //GenericApp_SendTheMessage();
//  474      
//  475     
//  476      //Setup to send message again evry 1000 ms
//  477      //osal_start_timerEx( GenericApp_TaskID,
//  478      //                    GENERICAPP_SEND_MSG_EVT,
//  479      //                    2000);
//  480     
//  481     
//  482     }
//  483     // return unprocessed events
//  484     return (events ^ GENERICAPP_SEND_MSG_EVT);
??GenericApp_ProcessEvent_15:
        MOV     A,?V0
        XRL     A,#0x1
        MOV     R2,A
        MOV     R3,?V1
        SJMP    ??GenericApp_ProcessEvent_13
//  485   }
//  486 
//  487 #if defined( IAR_ARMCM3_LM )
//  488   // Receive a message from the RTOS queue
//  489   if ( events & GENERICAPP_RTOS_MSG_EVT )
//  490   {
//  491     // Process message from RTOS queue
//  492     GenericApp_ProcessRtosMessage();
//  493 
//  494     // return unprocessed events
//  495     return (events ^ GENERICAPP_RTOS_MSG_EVT);
//  496   }
//  497 #endif
//  498 
//  499   // Discard unknown events
//  500   return 0;
??GenericApp_ProcessEvent_14:
        MOV     R2,#0x0
        MOV     R3,#0x0
??GenericApp_ProcessEvent_13:
        MOV     A,#0x9
        LCALL   ?DEALLOC_XSTACK8
          CFI CFA_XSP16 add(XSP16, 14)
        MOV     R7,#0x6
        LJMP    ?BANKED_LEAVE_XDATA
//  501 }
          CFI EndBlock cfiBlock1
//  502 
//  503 /*********************************************************************
//  504  * Event Generation Functions
//  505  */
//  506 
//  507 /*********************************************************************
//  508  * @fn      GenericApp_ProcessZDOMsgs()
//  509  *
//  510  * @brief   Process response messages
//  511  *
//  512  * @param   none
//  513  *
//  514  * @return  none
//  515  */
//  516 static void GenericApp_ProcessZDOMsgs( zdoIncomingMsg_t *inMsg )
//  517 {
//  518  
//  519   switch ( inMsg->clusterID )
//  520   {
//  521     case End_Device_Bind_rsp:
//  522       if ( ZDO_ParseBindRsp( inMsg ) == ZSuccess )
//  523       {
//  524         // Light LED
//  525         HalLedSet( HAL_LED_4, HAL_LED_MODE_ON );
//  526       }
//  527 #if defined( BLINK_LEDS )
//  528       else
//  529       {
//  530         // Flash LED to show failure
//  531         HalLedSet ( HAL_LED_4, HAL_LED_MODE_FLASH );
//  532       }
//  533 #endif
//  534       break;
//  535 
//  536     case Match_Desc_rsp:
//  537       {
//  538         ZDO_ActiveEndpointRsp_t *pRsp = ZDO_ParseEPListRsp( inMsg );
//  539         if ( pRsp )
//  540         {
//  541           
//  542           
//  543               if ( pRsp->status == ZSuccess && pRsp->cnt )
//  544               {
//  545                 
//  546             GenericApp_DstAddr.addrMode = (afAddrMode_t)Addr16Bit;
//  547             GenericApp_DstAddr.addr.shortAddr = pRsp->nwkAddr;
//  548             // Take the first endpoint, Can be changed to search through endpoints
//  549             GenericApp_DstAddr.endPoint = pRsp->epList[0];
//  550 
//  551             // Light LED
//  552             HalLedSet( HAL_LED_4, HAL_LED_MODE_ON );
//  553           }
//  554           osal_mem_free( pRsp );
//  555         }
//  556       }
//  557       break;
//  558   }
//  559 }
//  560 
//  561 /*********************************************************************
//  562  * @fn      GenericApp_HandleKeys
//  563  *
//  564  * @brief   Handles all key events for this device.
//  565  *
//  566  * @param   shift - true if in shift/alt.
//  567  * @param   keys - bit field for key events. Valid entries:
//  568  *                 HAL_KEY_SW_4
//  569  *                 HAL_KEY_SW_3
//  570  *                 HAL_KEY_SW_2
//  571  *                 HAL_KEY_SW_1
//  572  *
//  573  * @return  none
//  574  */
//  575 static void GenericApp_HandleKeys( uint8 shift, uint8 keys )
//  576 {
//  577   zAddrType_t dstAddr;
//  578 
//  579   // Shift is used to make each button/switch dual purpose.
//  580   if ( shift )
//  581   {
//  582     if ( keys & HAL_KEY_SW_1 )
//  583     {
//  584     }
//  585     if ( keys & HAL_KEY_SW_2 )
//  586     {
//  587     }
//  588     if ( keys & HAL_KEY_SW_3 )
//  589     {
//  590     }
//  591     if ( keys & HAL_KEY_SW_4 )
//  592     {
//  593     }
//  594   }
//  595   else
//  596   {
//  597     if ( keys & HAL_KEY_SW_1 )
//  598     {
//  599 #if defined( SWITCH1_BIND )
//  600       // We can use SW1 to simulate SW2 for devices that only have one switch,
//  601       keys |= HAL_KEY_SW_2;
//  602 #elif defined( SWITCH1_MATCH )
//  603       // or use SW1 to simulate SW4 for devices that only have one switch
//  604       keys |= HAL_KEY_SW_4;
//  605 #else
//  606       // Normally, SW1 changes the rate that messages are sent
//  607       if ( txMsgDelay > 100 )
//  608       {
//  609         // Cut the message TX delay in half
//  610         txMsgDelay /= 2;
//  611       }
//  612       else
//  613       {
//  614         // Reset to the default
//  615         txMsgDelay = GENERICAPP_SEND_MSG_TIMEOUT;
//  616       }
//  617 #endif
//  618     }
//  619 
//  620     if ( keys & HAL_KEY_SW_2 )
//  621     {
//  622       HalLedSet ( HAL_LED_4, HAL_LED_MODE_OFF );
//  623 
//  624       // Initiate an End Device Bind Request for the mandatory endpoint
//  625       dstAddr.addrMode = Addr16Bit;
//  626       dstAddr.addr.shortAddr = 0x0000; // Coordinator
//  627       ZDP_EndDeviceBindReq( &dstAddr, NLME_GetShortAddr(),
//  628                             GenericApp_epDesc.endPoint,
//  629                             GENERICAPP_PROFID,
//  630                             GENERICAPP_MAX_CLUSTERS, (cId_t *)GenericApp_ClusterList,
//  631                             GENERICAPP_MAX_CLUSTERS, (cId_t *)GenericApp_ClusterList,
//  632                             FALSE );
//  633     }
//  634 
//  635     if ( keys & HAL_KEY_SW_3 )
//  636     {
//  637     }
//  638 
//  639     if ( keys & HAL_KEY_SW_4 )
//  640     {
//  641       HalLedSet ( HAL_LED_4, HAL_LED_MODE_OFF );
//  642       // Initiate a Match Description Request (Service Discovery)
//  643       dstAddr.addrMode = AddrBroadcast;
//  644       dstAddr.addr.shortAddr = NWK_BROADCAST_SHORTADDR;
//  645       ZDP_MatchDescReq( &dstAddr, NWK_BROADCAST_SHORTADDR,
//  646                         GENERICAPP_PROFID,
//  647                         GENERICAPP_MAX_CLUSTERS, (cId_t *)GenericApp_ClusterList,
//  648                         GENERICAPP_MAX_CLUSTERS, (cId_t *)GenericApp_ClusterList,
//  649                         FALSE );
//  650     }
//  651   }
//  652 }
//  653 
//  654 /*********************************************************************
//  655  * LOCAL FUNCTIONS
//  656  */
//  657 
//  658 /*********************************************************************
//  659  * @fn      GenericApp_MessageMSGCB
//  660  *
//  661  * @brief   Data message processor callback.  This function processes
//  662  *          any incoming data - probably from other devices.  So, based
//  663  *          on cluster ID, perform the intended action.
//  664  *
//  665  * @param   none
//  666  *
//  667  * @return  none
//  668  */
//  669 static void GenericApp_MessageMSGCB( afIncomingMSGPacket_t *pkt )
//  670 { 
//  671   uint8 i;
//  672  
//  673 
//  674   switch ( pkt->clusterId )
//  675   {
//  676     case GENERICAPP_CLUSTERID:
//  677       
//  678             // Count this message
//  679             rxMsgCount += 1;  
//  680       
//  681             HalLcdWriteString("--------------------------------",0);
//  682             HalLcdWriteString("Received data:",0);
//  683       
//  684             for(i = 0;i < pkt->cmd.DataLength;i++)
//  685             {
//  686             uartSend(*(pkt->cmd.Data + i));
//  687             }
//  688       
//  689             HalLcdWriteString("",0);
//  690             HalLcdWriteString("--------------------------------",0);
//  691       
//  692       break;
//  693       
//  694     default:
//  695             HalLcdWriteString("Podatak nije primljen.",0);
//  696         
//  697     break;
//  698       
//  699   }
//  700 
//  701 
//  702 }
//  703 /*********************************************************************
//  704  * @fn      MagneticSwitch_SendTheMessage
//  705  *
//  706  * @brief   Send state of the door
//  707  *
//  708  * @param   none
//  709  *
//  710  * @return  none
//  711  */

        RSEG BANKED_CODE:HUGECODE:NOROOT(0)
//  712 void MotionSensor_SendTheMessage( void )
MotionSensor_SendTheMessage:
          CFI Block cfiBlock2 Using cfiCommon0
          CFI Function MotionSensor_SendTheMessage
        CODE
//  713 {
        FUNCALL MotionSensor_SendTheMessage, motionDetection
        LOCFRAME ISTACK, 0, STACK
        LOCFRAME PSTACK, 0, STACK
        LOCFRAME XSTACK, 11, STACK
        LOCFRAME IOVERLAY, 0, STATIC
        LOCFRAME DOVERLAY, 0, STATIC
        ARGFRAME ISTACK, 0, STACK
        ARGFRAME PSTACK, 0, STACK
        ARGFRAME XSTACK, 11, STACK
        ARGFRAME IOVERLAY, 0, STATIC
        ARGFRAME DOVERLAY, 0, STATIC
        FUNCALL MotionSensor_SendTheMessage, AF_DataRequest
        LOCFRAME ISTACK, 0, STACK
        LOCFRAME PSTACK, 0, STACK
        LOCFRAME XSTACK, 20, STACK
        LOCFRAME IOVERLAY, 0, STATIC
        LOCFRAME DOVERLAY, 0, STATIC
        ARGFRAME ISTACK, 0, STACK
        ARGFRAME PSTACK, 0, STACK
        ARGFRAME XSTACK, 20, STACK
        ARGFRAME IOVERLAY, 0, STATIC
        ARGFRAME DOVERLAY, 0, STATIC
        FUNCALL MotionSensor_SendTheMessage, HalLcdWriteString
        LOCFRAME ISTACK, 0, STACK
        LOCFRAME PSTACK, 0, STACK
        LOCFRAME XSTACK, 11, STACK
        LOCFRAME IOVERLAY, 0, STATIC
        LOCFRAME DOVERLAY, 0, STATIC
        ARGFRAME ISTACK, 0, STACK
        ARGFRAME PSTACK, 0, STACK
        ARGFRAME XSTACK, 11, STACK
        ARGFRAME IOVERLAY, 0, STATIC
        ARGFRAME DOVERLAY, 0, STATIC
        REQUIRE ?V0
        REQUIRE ?V1
        MOV     A,#-0xa
        LCALL   ?BANKED_ENTER_XDATA
          CFI DPH0 load(1, XDATA, add(CFA_XSP16, literal(-1)))
          CFI DPL0 load(1, XDATA, add(CFA_XSP16, literal(-2)))
          CFI ?BRET_EXT load(1, XDATA, add(CFA_XSP16, literal(-3)))
          CFI ?RET_HIGH load(1, XDATA, add(CFA_XSP16, literal(-4)))
          CFI ?RET_LOW load(1, XDATA, add(CFA_XSP16, literal(-5)))
          CFI R7 load(1, XDATA, add(CFA_XSP16, literal(-6)))
          CFI V1 load(1, XDATA, add(CFA_XSP16, literal(-7)))
          CFI V0 load(1, XDATA, add(CFA_XSP16, literal(-8)))
          CFI VB load(1, XDATA, add(CFA_XSP16, literal(-9)))
          CFI R6 load(1, XDATA, add(CFA_XSP16, literal(-10)))
          CFI CFA_SP SP+0
          CFI CFA_XSP16 add(XSP16, 10)
        ; Saved register size: 10
        ; Auto size: 1
        MOV     A,#-0x1
        LCALL   ?ALLOC_XSTACK8
          CFI CFA_XSP16 add(XSP16, 11)
//  714 
//  715   char motionDetected[] = {'1'};
        MOV     DPTR,#`?<Constant {49}>`
        MOV     R4,?XSP + 0
        MOV     R5,?XSP + 1
        MOV     A,#0x1
        LCALL   ?MOVE_LONG8_XDATA_XDATA
//  716   //char motionNotDetected[] = {'0'};
//  717    
//  718   if ( motionDetection() )
        ; Setup parameters for call to function motionDetection
        LCALL   `??motionDetection::?relay`; Banked call to: motionDetection
        MOV     A,R1
        JZ      ??MotionSensor_SendTheMessage_0
//  719   {
//  720     // Successfully requested to be sent.
//  721    
//  722     AF_DataRequest( &GenericApp_DstAddr, &GenericApp_epDesc,
//  723                        GENERICAPP_CLUSTERID,
//  724                        2,                                                       
//  725                        (byte *)&motionDetected,
//  726                        &GenericApp_TransID,
//  727                        AF_DISCV_ROUTE, AF_DEFAULT_RADIUS );
        ; Setup parameters for call to function AF_DataRequest
        MOV     ?V0,#0x1e
        MOV     R0,#?V0
        LCALL   ?PUSH_XSTACK_I_ONE
          CFI CFA_XSP16 add(XSP16, 12)
        MOV     ?V0,#GenericApp_TransID & 0xff
        MOV     ?V1,#(GenericApp_TransID >> 8) & 0xff
        MOV     R0,#?V0
        LCALL   ?PUSH_XSTACK_I_TWO
          CFI CFA_XSP16 add(XSP16, 14)
        MOV     A,#0x3
        LCALL   ?XSTACK_DISP100_8
        MOV     ?V0,R0
        MOV     ?V1,R1
        MOV     R0,#?V0
        LCALL   ?PUSH_XSTACK_I_TWO
          CFI CFA_XSP16 add(XSP16, 16)
        MOV     ?V0,#0x2
        MOV     ?V1,#0x0
        MOV     R0,#?V0
        LCALL   ?PUSH_XSTACK_I_TWO
          CFI CFA_XSP16 add(XSP16, 18)
        MOV     ?V0,#0x1
        MOV     R0,#?V0
        LCALL   ?PUSH_XSTACK_I_TWO
          CFI CFA_XSP16 add(XSP16, 20)
        MOV     R1,#0x0
        MOV     R4,#GenericApp_epDesc & 0xff
        MOV     R5,#(GenericApp_epDesc >> 8) & 0xff
        MOV     R2,#GenericApp_DstAddr & 0xff
        MOV     R3,#(GenericApp_DstAddr >> 8) & 0xff
        LCALL   `??AF_DataRequest::?relay`; Banked call to: AF_DataRequest
        MOV     A,#0x9
        LCALL   ?DEALLOC_XSTACK8
          CFI CFA_XSP16 add(XSP16, 11)
//  728     
//  729     HalLcdWriteString("Pokret je detektovan.",0);
        ; Setup parameters for call to function HalLcdWriteString
        MOV     R1,#0x0
        MOV     R2,#`?<Constant "Pokret je detektovan.">` & 0xff
        MOV     R3,#(`?<Constant "Pokret je detektovan.">` >> 8) & 0xff
        LCALL   `??HalLcdWriteString::?relay`; Banked call to: HalLcdWriteString
//  730     
//  731   }
//  732 /*  else
//  733   {
//  734     
//  735     // Error occurred in request to send.
//  736     // HalLcdWriteString("Podatak nije poslan.",0);
//  737     AF_DataRequest( &GenericApp_DstAddr, &GenericApp_epDesc,
//  738                        GENERICAPP_CLUSTERID,
//  739                        2,                                                       
//  740                        (byte *)&motionNotDetected,
//  741                        &GenericApp_TransID,
//  742                        AF_DISCV_ROUTE, AF_DEFAULT_RADIUS );
//  743   
//  744     HalLcdWriteString("Nema kretanja.",0);
//  745     
//  746   }*/
//  747 
//  748 }
??MotionSensor_SendTheMessage_0:
        MOV     A,#0x1
          CFI EndBlock cfiBlock2
        REQUIRE ?Subroutine0
        ; // Fall through to label ?Subroutine0

        RSEG BANKED_CODE:HUGECODE:NOROOT(0)
?Subroutine0:
          CFI Block cfiBlock3 Using cfiCommon0
          CFI NoFunction
          CFI CFA_SP SP+0
          CFI CFA_XSP16 add(XSP16, 11)
          CFI VB load(1, XDATA, add(CFA_XSP16, literal(-9)))
          CFI DPL0 load(1, XDATA, add(CFA_XSP16, literal(-2)))
          CFI DPH0 load(1, XDATA, add(CFA_XSP16, literal(-1)))
          CFI R6 load(1, XDATA, add(CFA_XSP16, literal(-10)))
          CFI R7 load(1, XDATA, add(CFA_XSP16, literal(-6)))
          CFI V0 load(1, XDATA, add(CFA_XSP16, literal(-8)))
          CFI V1 load(1, XDATA, add(CFA_XSP16, literal(-7)))
          CFI ?BRET_EXT load(1, XDATA, add(CFA_XSP16, literal(-3)))
          CFI ?RET_HIGH load(1, XDATA, add(CFA_XSP16, literal(-4)))
          CFI ?RET_LOW load(1, XDATA, add(CFA_XSP16, literal(-5)))
          CFI Invalid
        LCALL   ?DEALLOC_XSTACK8
          CFI CFA_XSP16 add(XSP16, 10)
          CFI Valid
        MOV     R7,#0x2
        LJMP    ?BANKED_LEAVE_XDATA
          CFI EndBlock cfiBlock3
//  749 /*********************************************************************
//  750  * @fn      MagneticSwitch_SendTheMessage
//  751  *
//  752  * @brief   Send state of the door
//  753  *
//  754  * @param   none
//  755  *
//  756  * @return  none
//  757  */

        RSEG BANKED_CODE:HUGECODE:NOROOT(0)
//  758 void MagneticSwitch_SendTheMessage( void )
MagneticSwitch_SendTheMessage:
          CFI Block cfiBlock4 Using cfiCommon0
          CFI Function MagneticSwitch_SendTheMessage
        CODE
//  759 {
        FUNCALL MagneticSwitch_SendTheMessage, AF_DataRequest
        LOCFRAME ISTACK, 0, STACK
        LOCFRAME PSTACK, 0, STACK
        LOCFRAME XSTACK, 21, STACK
        LOCFRAME IOVERLAY, 0, STATIC
        LOCFRAME DOVERLAY, 0, STATIC
        ARGFRAME ISTACK, 0, STACK
        ARGFRAME PSTACK, 0, STACK
        ARGFRAME XSTACK, 21, STACK
        ARGFRAME IOVERLAY, 0, STATIC
        ARGFRAME DOVERLAY, 0, STATIC
        FUNCALL MagneticSwitch_SendTheMessage, HalLcdWriteString
        LOCFRAME ISTACK, 0, STACK
        LOCFRAME PSTACK, 0, STACK
        LOCFRAME XSTACK, 12, STACK
        LOCFRAME IOVERLAY, 0, STATIC
        LOCFRAME DOVERLAY, 0, STATIC
        ARGFRAME ISTACK, 0, STACK
        ARGFRAME PSTACK, 0, STACK
        ARGFRAME XSTACK, 12, STACK
        ARGFRAME IOVERLAY, 0, STATIC
        ARGFRAME DOVERLAY, 0, STATIC
        FUNCALL MagneticSwitch_SendTheMessage, AF_DataRequest
        LOCFRAME ISTACK, 0, STACK
        LOCFRAME PSTACK, 0, STACK
        LOCFRAME XSTACK, 21, STACK
        LOCFRAME IOVERLAY, 0, STATIC
        LOCFRAME DOVERLAY, 0, STATIC
        ARGFRAME ISTACK, 0, STACK
        ARGFRAME PSTACK, 0, STACK
        ARGFRAME XSTACK, 21, STACK
        ARGFRAME IOVERLAY, 0, STATIC
        ARGFRAME DOVERLAY, 0, STATIC
        FUNCALL MagneticSwitch_SendTheMessage, HalLcdWriteString
        LOCFRAME ISTACK, 0, STACK
        LOCFRAME PSTACK, 0, STACK
        LOCFRAME XSTACK, 12, STACK
        LOCFRAME IOVERLAY, 0, STATIC
        LOCFRAME DOVERLAY, 0, STATIC
        ARGFRAME ISTACK, 0, STACK
        ARGFRAME PSTACK, 0, STACK
        ARGFRAME XSTACK, 12, STACK
        ARGFRAME IOVERLAY, 0, STATIC
        ARGFRAME DOVERLAY, 0, STATIC
        REQUIRE ?V0
        REQUIRE ?V1
        MOV     A,#-0xa
        LCALL   ?BANKED_ENTER_XDATA
          CFI DPH0 load(1, XDATA, add(CFA_XSP16, literal(-1)))
          CFI DPL0 load(1, XDATA, add(CFA_XSP16, literal(-2)))
          CFI ?BRET_EXT load(1, XDATA, add(CFA_XSP16, literal(-3)))
          CFI ?RET_HIGH load(1, XDATA, add(CFA_XSP16, literal(-4)))
          CFI ?RET_LOW load(1, XDATA, add(CFA_XSP16, literal(-5)))
          CFI R7 load(1, XDATA, add(CFA_XSP16, literal(-6)))
          CFI V1 load(1, XDATA, add(CFA_XSP16, literal(-7)))
          CFI V0 load(1, XDATA, add(CFA_XSP16, literal(-8)))
          CFI VB load(1, XDATA, add(CFA_XSP16, literal(-9)))
          CFI R6 load(1, XDATA, add(CFA_XSP16, literal(-10)))
          CFI CFA_SP SP+0
          CFI CFA_XSP16 add(XSP16, 10)
        ; Saved register size: 10
        ; Auto size: 2
        MOV     A,#-0x2
        LCALL   ?ALLOC_XSTACK8
          CFI CFA_XSP16 add(XSP16, 12)
//  760 
//  761   char doorOpened[] = {'1'};
        MOV     DPTR,#`?<Constant {49}>_1`
        MOV     A,#0x1
        LCALL   ?XSTACK_DISP102_8
        MOV     A,#0x1
        LCALL   ?MOVE_LONG8_XDATA_XDATA
//  762   char doorClosed[] = {'0'};
        MOV     DPTR,#`?<Constant {48}>`
        MOV     R4,?XSP + 0
        MOV     R5,?XSP + 1
        INC     A
        LCALL   ?MOVE_LONG8_XDATA_XDATA
//  763   
//  764   if ( !magneticSwitch_DoorDetection() )
        MOV     C,0xa0.0
        MOV     ?V0,#0x1e
        MOV     R0,#?V0
        JNC     ??MagneticSwitch_SendTheMessage_0
//  765   {
//  766     // Successfully requested to be sent.
//  767     //HalLcdWriteString("Podatak je poslan.",0);
//  768     AF_DataRequest( &GenericApp_DstAddr, &GenericApp_epDesc,
//  769                        GENERICAPP_CLUSTERID,
//  770                        2,                                                       
//  771                        (byte *)&doorOpened,
//  772                        &GenericApp_TransID,
//  773                        AF_DISCV_ROUTE, AF_DEFAULT_RADIUS );
        ; Setup parameters for call to function AF_DataRequest
        LCALL   ?PUSH_XSTACK_I_ONE
          CFI CFA_XSP16 add(XSP16, 13)
        MOV     ?V0,#GenericApp_TransID & 0xff
        MOV     ?V1,#(GenericApp_TransID >> 8) & 0xff
        MOV     R0,#?V0
        LCALL   ?PUSH_XSTACK_I_TWO
          CFI CFA_XSP16 add(XSP16, 15)
        MOV     A,#0x4
        LCALL   ?XSTACK_DISP100_8
        MOV     ?V0,R0
        MOV     ?V1,R1
        MOV     R0,#?V0
        LCALL   ?PUSH_XSTACK_I_TWO
          CFI CFA_XSP16 add(XSP16, 17)
        MOV     ?V0,#0x2
        MOV     ?V1,#0x0
        MOV     R0,#?V0
        LCALL   ?PUSH_XSTACK_I_TWO
          CFI CFA_XSP16 add(XSP16, 19)
        MOV     ?V0,#0x1
        MOV     R0,#?V0
        LCALL   ?PUSH_XSTACK_I_TWO
          CFI CFA_XSP16 add(XSP16, 21)
        MOV     R1,#0x0
        MOV     R4,#GenericApp_epDesc & 0xff
        MOV     R5,#(GenericApp_epDesc >> 8) & 0xff
        MOV     R2,#GenericApp_DstAddr & 0xff
        MOV     R3,#(GenericApp_DstAddr >> 8) & 0xff
        LCALL   `??AF_DataRequest::?relay`; Banked call to: AF_DataRequest
        MOV     A,#0x9
        LCALL   ?DEALLOC_XSTACK8
          CFI CFA_XSP16 add(XSP16, 12)
//  774     
//  775     HalLcdWriteString("######VRATA SU OTVORENA######",0);
        ; Setup parameters for call to function HalLcdWriteString
        MOV     R1,#0x0
        MOV     R2,#`?<Constant "######VRATA SU OTVORE...">` & 0xff
        MOV     R3,#(`?<Constant "######VRATA SU OTVORE...">` >> 8) & 0xff
        SJMP    ??MagneticSwitch_SendTheMessage_1
//  776     
//  777   }
//  778   else
//  779   {
//  780     
//  781     // Error occurred in request to send.
//  782     // HalLcdWriteString("Podatak nije poslan.",0);
//  783     AF_DataRequest( &GenericApp_DstAddr, &GenericApp_epDesc,
//  784                        GENERICAPP_CLUSTERID,
//  785                        2,                                                       
//  786                        (byte *)&doorClosed,
//  787                        &GenericApp_TransID,
//  788                        AF_DISCV_ROUTE, AF_DEFAULT_RADIUS );
??MagneticSwitch_SendTheMessage_0:
        ; Setup parameters for call to function AF_DataRequest
        LCALL   ?PUSH_XSTACK_I_ONE
          CFI CFA_XSP16 add(XSP16, 13)
        MOV     ?V0,#GenericApp_TransID & 0xff
        MOV     ?V1,#(GenericApp_TransID >> 8) & 0xff
        MOV     R0,#?V0
        LCALL   ?PUSH_XSTACK_I_TWO
          CFI CFA_XSP16 add(XSP16, 15)
        MOV     A,#0x3
        LCALL   ?XSTACK_DISP100_8
        MOV     ?V0,R0
        MOV     ?V1,R1
        MOV     R0,#?V0
        LCALL   ?PUSH_XSTACK_I_TWO
          CFI CFA_XSP16 add(XSP16, 17)
        MOV     ?V0,#0x2
        MOV     ?V1,#0x0
        MOV     R0,#?V0
        LCALL   ?PUSH_XSTACK_I_TWO
          CFI CFA_XSP16 add(XSP16, 19)
        MOV     ?V0,#0x1
        MOV     R0,#?V0
        LCALL   ?PUSH_XSTACK_I_TWO
          CFI CFA_XSP16 add(XSP16, 21)
        MOV     R1,#0x0
        MOV     R4,#GenericApp_epDesc & 0xff
        MOV     R5,#(GenericApp_epDesc >> 8) & 0xff
        MOV     R2,#GenericApp_DstAddr & 0xff
        MOV     R3,#(GenericApp_DstAddr >> 8) & 0xff
        LCALL   `??AF_DataRequest::?relay`; Banked call to: AF_DataRequest
        MOV     A,#0x9
        LCALL   ?DEALLOC_XSTACK8
          CFI CFA_XSP16 add(XSP16, 12)
//  789   
//  790     HalLcdWriteString("######VRATA SU ZATVORENA######",0);
        ; Setup parameters for call to function HalLcdWriteString
        MOV     R1,#0x0
        MOV     R2,#`?<Constant "######VRATA SU ZATVOR...">` & 0xff
        MOV     R3,#(`?<Constant "######VRATA SU ZATVOR...">` >> 8) & 0xff
??MagneticSwitch_SendTheMessage_1:
        LCALL   `??HalLcdWriteString::?relay`; Banked call to: HalLcdWriteString
//  791     
//  792   }
//  793 
//  794 }
        MOV     A,#0x2
        LJMP    ?Subroutine0 & 0xFFFF
          CFI EndBlock cfiBlock4
        REQUIRE _A_P2
//  795 /*********************************************************************
//  796  * @fn      GenericApp_SendTheMessage
//  797  *
//  798  * @brief   Send "the" message.
//  799  *
//  800  * @param   none
//  801  *
//  802  * @return  none
//  803  */
//  804 static void GenericApp_SendTheMessage( void )
//  805 {
//  806   uint16 shortAdrress;
//  807   char shAddr[4];
//  808   uint8 i;
//  809   
//  810  
//  811   char theMessageData[] = "Hello World";
//  812   char doorOpened[] = {'1'};
//  813   char doorClosed[] = {'0'};
//  814   char motionDetected[] = {'1'};
//  815   char motionNotDetected[] = {'0'};
//  816   
//  817   char theOpticalData[5];
//  818   uint16 optDat;
//  819   
//  820   
//  821   
//  822 //*****************************************************************************
//  823 //Motion detection
//  824 //*****************************************************************************
//  825  #if MOTION_SENSOR
//  826 
//  827 
//  828   if ( motionDetection() )
//  829   {
//  830     // Successfully requested to be sent.
//  831     //HalLcdWriteString("Podatak je poslan.",0);
//  832     AF_DataRequest( &GenericApp_DstAddr, &GenericApp_epDesc,
//  833                        GENERICAPP_CLUSTERID,
//  834                        2,                                                       
//  835                        (byte *)&motionDetected,
//  836                        &GenericApp_TransID,
//  837                        AF_DISCV_ROUTE, AF_DEFAULT_RADIUS );
//  838     
//  839     HalLcdWriteString("Pokret je detektovan.",0);
//  840     
//  841   }
//  842   else
//  843   {
//  844     
//  845     // Error occurred in request to send.
//  846     // HalLcdWriteString("Podatak nije poslan.",0);
//  847     AF_DataRequest( &GenericApp_DstAddr, &GenericApp_epDesc,
//  848                        GENERICAPP_CLUSTERID,
//  849                        2,                                                       
//  850                        (byte *)&motionNotDetected,
//  851                        &GenericApp_TransID,
//  852                        AF_DISCV_ROUTE, AF_DEFAULT_RADIUS );
//  853   
//  854     HalLcdWriteString("Nema kretanja.",0);
//  855     
//  856   }
//  857   
//  858 #endif   
//  859 //*****************************************************************************
//  860 //Motion detection end
//  861 //*****************************************************************************  
//  862   
//  863 #if OPTICAL_SENSOR
//  864   
//  865   optDat = HalAdcRead(HAL_ADC_CHANNEL_1,HAL_ADC_RESOLUTION_12);
//  866 
//  867    for(i = 0;i<4;i++)
//  868    {
//  869         theOpticalData[3-i] =  optDat % 10  + '0';
//  870         optDat /= 10;
//  871    }
//  872       
//  873    theOpticalData[4] = '\0';
//  874    
//  875    if ( AF_DataRequest( &GenericApp_DstAddr, &GenericApp_epDesc,
//  876                         GENERICAPP_CLUSTERID,
//  877                         (byte)osal_strlen( theOpticalData ) + 1,
//  878                         (byte *)&theOpticalData,
//  879                         &GenericApp_TransID,
//  880                         AF_DISCV_ROUTE, AF_DEFAULT_RADIUS ) == afStatus_SUCCESS )
//  881    {
//  882       // Successfully requested to be sent.
//  883       HalLcdWriteString("Podatak je poslan.",0);
//  884       //HalLcdWriteString(theMessageData,0);
//  885    }
//  886    else
//  887    {
//  888       // Error occurred in request to send.
//  889       HalLcdWriteString("Podatak nije poslan.",0);
//  890    }
//  891 #endif  
//  892 #if MAGNETIC_SENSOR
//  893 
//  894 
//  895   if ( !magneticSwitch_DoorDetection() )
//  896   {
//  897     // Successfully requested to be sent.
//  898     //HalLcdWriteString("Podatak je poslan.",0);
//  899     AF_DataRequest( &GenericApp_DstAddr, &GenericApp_epDesc,
//  900                        GENERICAPP_CLUSTERID,
//  901                        2,                                                       
//  902                        (byte *)&doorOpened,
//  903                        &GenericApp_TransID,
//  904                        AF_DISCV_ROUTE, AF_DEFAULT_RADIUS );
//  905     
//  906     HalLcdWriteString("Vrata su otvorena.",0);
//  907     
//  908   }
//  909   else
//  910   {
//  911     
//  912     // Error occurred in request to send.
//  913     // HalLcdWriteString("Podatak nije poslan.",0);
//  914     AF_DataRequest( &GenericApp_DstAddr, &GenericApp_epDesc,
//  915                        GENERICAPP_CLUSTERID,
//  916                        2,                                                       
//  917                        (byte *)&doorClosed,
//  918                        &GenericApp_TransID,
//  919                        AF_DISCV_ROUTE, AF_DEFAULT_RADIUS );
//  920   
//  921     HalLcdWriteString("Vrata su zatvorena.",0);
//  922     
//  923   }
//  924   
//  925 #endif 
//  926   
//  927   
//  928   
//  929 #if HELLO_WORLD
//  930 
//  931   
//  932   
//  933    if ( AF_DataRequest( &GenericApp_DstAddr, &GenericApp_epDesc,
//  934                         GENERICAPP_CLUSTERID,
//  935                         (byte)osal_strlen( theMessageData ) + 1,
//  936                         (byte *)&theMessageData,
//  937                         &GenericApp_TransID,
//  938                         AF_DISCV_ROUTE, AF_DEFAULT_RADIUS ) == afStatus_SUCCESS )
//  939    {
//  940       // Successfully requested to be sent.
//  941       HalLcdWriteString("Podatak je poslan.",0);
//  942       //HalLcdWriteString(theMessageData,0);
//  943    }
//  944    else
//  945    {
//  946       // Error occurred in request to send.
//  947       HalLcdWriteString("Podatak nije poslan.",0);
//  948    }
//  949  
//  950 
//  951 #endif
//  952 }
//  953 
//  954 #if defined( IAR_ARMCM3_LM )
//  955 /*********************************************************************
//  956  * @fn      GenericApp_ProcessRtosMessage
//  957  *
//  958  * @brief   Receive message from RTOS queue, send response back.
//  959  *
//  960  * @param   none
//  961  *
//  962  * @return  none
//  963  */
//  964 static void GenericApp_ProcessRtosMessage( void )
//  965 {
//  966   osalQueue_t inMsg;
//  967 
//  968   if ( osal_queue_receive( OsalQueue, &inMsg, 0 ) == pdPASS )
//  969   {
//  970     uint8 cmndId = inMsg.cmnd;
//  971     uint32 counter = osal_build_uint32( inMsg.cbuf, 4 );
//  972 
//  973     switch ( cmndId )
//  974     {
//  975       case CMD_INCR:
//  976         counter += 1;  /* Increment the incoming counter */
//  977                        /* Intentionally fall through next case */
//  978 
//  979       case CMD_ECHO:
//  980       {
//  981         userQueue_t outMsg;
//  982 
//  983         outMsg.resp = RSP_CODE | cmndId;  /* Response ID */
//  984         osal_buffer_uint32( outMsg.rbuf, counter );    /* Increment counter */
//  985         osal_queue_send( UserQueue1, &outMsg, 0 );  /* Send back to UserTask */
//  986         break;
//  987       }
//  988 
//  989       default:
//  990         break;  /* Ignore unknown command */
//  991     }
//  992   }
//  993 }
//  994 #endif
//  995 
//  996 /*********************************************************************
//  997  * @fn      magneticSwitchInit()
//  998  *
//  999  * @brief   Initialize pins for magnetic switch
// 1000  *
// 1001  * @param   none
// 1002  *
// 1003  * @return  none
// 1004  */

        RSEG BANKED_CODE:HUGECODE:NOROOT(0)
// 1005 void magneticSwitchInit(void)
magneticSwitchInit:
        CODE
// 1006 {
        ; Saved register size: 0
        ; Auto size: 0
// 1007  // Set GPIO function for P1_3  
// 1008  P1SEL &= 0xFC;
        REQUIRE ?Subroutine1
        REQUIRE P1SEL
        REQUIRE P1DIR
        REQUIRE P2INP
        ; // Fall through to label ?Subroutine1

        RSEG BANKED_CODE:HUGECODE:NOROOT(0)
?Subroutine1:
          CFI Block cfiBlock5 Using cfiCommon0
          CFI NoFunction
        ANL     0xf4,#0xfc
// 1009  
// 1010  // Set inputs on P0_0
// 1011  P1DIR &= 0xFC;
        ANL     0xfe,#0xfc
// 1012  
// 1013  // Set pulldown for port 0 pins
// 1014  P2INP |= 0x40;
        ORL     0xf7,#0x40
// 1015   
// 1016 }
        LJMP    ?BRET
          CFI EndBlock cfiBlock5
// 1017 
// 1018 /*********************************************************************
// 1019  * @fn      magneticSwitch_DoorDetection()
// 1020  *
// 1021  * @brief   Detects if door are closed/opened
// 1022  *
// 1023  * @param   none
// 1024  *
// 1025  * @return  1 if closed, 0 if opened
// 1026  */

        RSEG BANKED_CODE:HUGECODE:NOROOT(0)
// 1027 uint8 magneticSwitch_DoorDetection()
magneticSwitch_DoorDetection:
          CFI Block cfiBlock6 Using cfiCommon0
          CFI Function magneticSwitch_DoorDetection
        CODE
// 1028 {
        ; Saved register size: 0
        ; Auto size: 0
// 1029     
// 1030  if(TRUE == DOOR_CLOSED_DETECTION) 
        MOV     C,0xa0.0
        JNC     ??magneticSwitch_DoorDetection_0
// 1031         { 
// 1032           return 0;
        MOV     R1,#0x0
        SJMP    ??magneticSwitch_DoorDetection_1
// 1033  }
// 1034         else
// 1035         {
// 1036           return 1;
??magneticSwitch_DoorDetection_0:
        MOV     R1,#0x1
??magneticSwitch_DoorDetection_1:
        LJMP    ?BRET
          CFI EndBlock cfiBlock6
        REQUIRE _A_P2
// 1037         }
// 1038  
// 1039 } 
// 1040 /*********************************************************************
// 1041  * @fn      motionInit()
// 1042  *
// 1043  * @brief   Initialize pins for motion sensor
// 1044  *
// 1045  * @param   none
// 1046  *
// 1047  * @return  none
// 1048  */

        RSEG BANKED_CODE:HUGECODE:NOROOT(0)
// 1049 void motionInit(void)
motionInit:
          CFI Block cfiBlock7 Using cfiCommon0
          CFI Function motionInit
        CODE
// 1050 {
        ; Saved register size: 0
        ; Auto size: 0
// 1051  // Set GPIO function for P1_3  
// 1052  P1SEL &= 0xFC;
        SJMP    ?Subroutine1
          CFI EndBlock cfiBlock7
        REQUIRE P1SEL
        REQUIRE P1DIR
        REQUIRE P2INP
// 1053  
// 1054  // Set inputs on P0_0
// 1055  P1DIR &= 0xFC;
// 1056  
// 1057  // Set pulldown for port 0 pins
// 1058  P2INP |= 0x40;
// 1059   
// 1060 }
// 1061 /*********************************************************************
// 1062  * @fn      motionDetection()
// 1063  *
// 1064  * @brief   Detects there is motion or not
// 1065  *
// 1066  * @param   none
// 1067  *
// 1068  * @return  1 if motion detected, 0 if not
// 1069  */

        RSEG BANKED_CODE:HUGECODE:NOROOT(0)
// 1070 uint8 motionDetection()
motionDetection:
          CFI Block cfiBlock8 Using cfiCommon0
          CFI Function motionDetection
        CODE
// 1071 {
        ; Saved register size: 0
        ; Auto size: 0
// 1072     
// 1073         if(TRUE == P0_1) 
        MOV     C,0x80.1
        JNC     ??motionDetection_0
// 1074         { 
// 1075           return 1;
        MOV     R1,#0x1
        SJMP    ??motionDetection_1
// 1076         }
// 1077         else
// 1078         {
// 1079           return 0;
??motionDetection_0:
        MOV     R1,#0x0
??motionDetection_1:
        LJMP    ?BRET
          CFI EndBlock cfiBlock8
        REQUIRE _A_P0
// 1080         }
// 1081  
// 1082 }  

        RSEG XDATA_ID:CODE:NOROOT(0)
`?<Initializer for coin>`:
        DATA8
        DB 1

        RSEG XDATA_ID:CODE:NOROOT(0)
`?<Initializer for keyPressSW4>`:
        DATA8
        DB 1

        RSEG XDATA_ID:CODE:NOROOT(0)
`?<Initializer for txMsgDelay>`:
        DATA32
        DD 5000

        RSEG BANK_RELAYS:CODE:REORDER:NOROOT(0)
`??GenericApp_Init::?relay`:
        CODE
        LCALL   ?BDISPATCH
        DATA24
        DC24    GenericApp_Init

        RSEG BANK_RELAYS:CODE:REORDER:NOROOT(0)
`??GenericApp_ProcessEvent::?relay`:
        CODE
        LCALL   ?BDISPATCH
        DATA24
        DC24    GenericApp_ProcessEvent

        RSEG BANK_RELAYS:CODE:REORDER:NOROOT(0)
`??MotionSensor_SendTheMessage::?relay`:
        CODE
        LCALL   ?BDISPATCH
        DATA24
        DC24    MotionSensor_SendTheMessage

        RSEG BANK_RELAYS:CODE:REORDER:NOROOT(0)
`??MagneticSwitch_SendTheMessage::?relay`:
        CODE
        LCALL   ?BDISPATCH
        DATA24
        DC24    MagneticSwitch_SendTheMessage

        RSEG BANK_RELAYS:CODE:REORDER:NOROOT(0)
`??magneticSwitchInit::?relay`:
        CODE
        LCALL   ?BDISPATCH
        DATA24
        DC24    magneticSwitchInit

        RSEG BANK_RELAYS:CODE:REORDER:NOROOT(0)
`??magneticSwitch_DoorDetection::?relay`:
        CODE
        LCALL   ?BDISPATCH
        DATA24
        DC24    magneticSwitch_DoorDetection

        RSEG BANK_RELAYS:CODE:REORDER:NOROOT(0)
`??motionInit::?relay`:
        CODE
        LCALL   ?BDISPATCH
        DATA24
        DC24    motionInit

        RSEG BANK_RELAYS:CODE:REORDER:NOROOT(0)
`??motionDetection::?relay`:
        CODE
        LCALL   ?BDISPATCH
        DATA24
        DC24    motionDetection

        RSEG XDATA_ROM_C:CONST:REORDER:NOROOT(0)
        DATA8
`?<Constant "GenericApp">`:
        DB "GenericApp"

        RSEG XDATA_ROM_C:CONST:REORDER:NOROOT(0)
        DATA8
`?<Constant {49}>`:
        DB 49

        RSEG XDATA_ROM_C:CONST:REORDER:NOROOT(0)
        DATA8
`?<Constant "Pokret je detektovan.">`:
        DB "Pokret je detektovan."

        RSEG XDATA_ROM_C:CONST:REORDER:NOROOT(0)
        DATA8
`?<Constant {49}>_1`:
        DB 49

        RSEG XDATA_ROM_C:CONST:REORDER:NOROOT(0)
        DATA8
`?<Constant {48}>`:
        DB 48

        RSEG XDATA_ROM_C:CONST:REORDER:NOROOT(0)
        DATA8
`?<Constant "######VRATA SU OTVORE...">`:
        DB "######VRATA SU OTVORENA######"

        RSEG XDATA_ROM_C:CONST:REORDER:NOROOT(0)
        DATA8
`?<Constant "######VRATA SU ZATVOR...">`:
        DB "######VRATA SU ZATVORENA######"

        END
// 1083 
// 1084 
// 1085 
// 1086 /*********************************************************************
// 1087  */
// 
// 920 bytes in segment BANKED_CODE
//  48 bytes in segment BANK_RELAYS
//   5 bytes in segment SFR_AN
//   6 bytes in segment XDATA_I
//   6 bytes in segment XDATA_ID
// 111 bytes in segment XDATA_ROM_C
// 101 bytes in segment XDATA_Z
// 
//  54 bytes of CODE     memory
// 111 bytes of CONST    memory
//   0 bytes of DATA     memory (+ 5 bytes shared)
// 920 bytes of HUGECODE memory
// 107 bytes of XDATA    memory
//
//Errors: none
//Warnings: 17
