///////////////////////////////////////////////////////////////////////////////
//
// IAR C/C++ Compiler V9.30.3.3983 for 8051               20/Apr/2017  12:17:44
// Copyright 2004-2016 IAR Systems AB.
// Evaluation license - IAR Embedded Workbench for 8051, Evaluation version 9.30
//
//    Core               =  plain
//    Code model         =  banked
//    Data model         =  large
//    Calling convention =  xdata reentrant
//    Constant location  =  data_rom
//    Dptr setup         =  1,16
//                          
//    Source file        =  
//        C:\Users\bsavanovic\Desktop\EndDevice\ZigBeeEndDevice\Projects\zstack\Samples\GenericApp\Source\GenericApp.c
//    Command line       =  
//        -f
//        C:\Users\bsavanovic\Desktop\EndDevice\ZigBeeEndDevice\Projects\zstack\Samples\GenericApp\CC2530DB\..\..\..\Tools\CC2530DB\f8wEndev.cfg
//        (-DCPU32MHZ -DROOT=__near_func -DMAC_CFG_TX_DATA_MAX=3
//        -DMAC_CFG_TX_MAX=6 -DMAC_CFG_RX_MAX=3) -f
//        C:\Users\bsavanovic\Desktop\EndDevice\ZigBeeEndDevice\Projects\zstack\Samples\GenericApp\CC2530DB\..\..\..\Tools\CC2530DB\f8wConfig.cfg
//        (-DZIGBEEPRO -DSECURE=1 -DZG_SECURE_DYNAMIC=0 -DREFLECTOR
//        -DDEFAULT_CHANLIST=0x00000800 -DZDAPP_CONFIG_PAN_ID=0x0422
//        -DNWK_START_DELAY=100 -DEXTENDED_JOINING_RANDOM_MASK=0x007F
//        -DBEACON_REQUEST_DELAY=100 -DBEACON_REQ_DELAY_MASK=0x00FF
//        -DLINK_STATUS_JITTER_MASK=0x007F -DROUTE_EXPIRY_TIME=30
//        -DAPSC_ACK_WAIT_DURATION_POLLED=3000 -DNWK_INDIRECT_MSG_TIMEOUT=7
//        -DMAX_RREQ_ENTRIES=8 -DAPSC_MAX_FRAME_RETRIES=3
//        -DNWK_MAX_DATA_RETRIES=2 -DMAX_POLL_FAILURE_RETRIES=2 -DMAX_BCAST=9
//        -DAPS_MAX_GROUPS=16 -DMAX_RTG_ENTRIES=40 -DNWK_MAX_BINDING_ENTRIES=4
//        -DMAX_BINDING_CLUSTER_IDS=4 "-DDEFAULT_KEY={0x01, 0x03, 0x05, 0x07,
//        0x09, 0x0B, 0x0D, 0x0F, 0x00, 0x02, 0x04, 0x06, 0x08, 0x0A, 0x0C,
//        0x0D}" -DMAC_MAX_FRAME_SIZE=116 -DZDNWKMGR_MIN_TRANSMISSIONS=20
//        "-DCONST=const __code" -DGENERIC=__generic -DRFD_RCVC_ALWAYS_ON=FALSE
//        -DPOLL_RATE=1000 -DQUEUED_POLL_RATE=100 -DRESPONSE_POLL_RATE=100)
//        -DREJOIN_POLL_RATE=440
//        C:\Users\bsavanovic\Desktop\EndDevice\ZigBeeEndDevice\Projects\zstack\Samples\GenericApp\Source\GenericApp.c
//        -D NWK_AUTO_POLL -D ZTOOL_P1 -D MT_TASK -D MT_SYS_FUNC -D MT_ZDO_FUNC
//        -D LCD_SUPPORTED=DEBUG -D xPOWER_SAVING -lC
//        C:\Users\bsavanovic\Desktop\EndDevice\ZigBeeEndDevice\Projects\zstack\Samples\GenericApp\CC2530DB\EndDeviceEB\List
//        -lA
//        C:\Users\bsavanovic\Desktop\EndDevice\ZigBeeEndDevice\Projects\zstack\Samples\GenericApp\CC2530DB\EndDeviceEB\List
//        --diag_suppress Pe001,Pa010 -o
//        C:\Users\bsavanovic\Desktop\EndDevice\ZigBeeEndDevice\Projects\zstack\Samples\GenericApp\CC2530DB\EndDeviceEB\Obj
//        -e --no_code_motion --debug --core=plain --dptr=16,1
//        --data_model=large --code_model=banked
//        --calling_convention=xdata_reentrant --place_constants=data_rom
//        --nr_virtual_regs 16 -I
//        C:\Users\bsavanovic\Desktop\EndDevice\ZigBeeEndDevice\Projects\zstack\Samples\GenericApp\CC2530DB\
//        -I
//        C:\Users\bsavanovic\Desktop\EndDevice\ZigBeeEndDevice\Projects\zstack\Samples\GenericApp\CC2530DB\..\Source\
//        -I
//        C:\Users\bsavanovic\Desktop\EndDevice\ZigBeeEndDevice\Projects\zstack\Samples\GenericApp\CC2530DB\..\..\..\ZMain\TI2530DB\
//        -I
//        C:\Users\bsavanovic\Desktop\EndDevice\ZigBeeEndDevice\Projects\zstack\Samples\GenericApp\CC2530DB\..\..\..\..\..\Components\hal\include\
//        -I
//        C:\Users\bsavanovic\Desktop\EndDevice\ZigBeeEndDevice\Projects\zstack\Samples\GenericApp\CC2530DB\..\..\..\..\..\Components\hal\target\CC2530EB\
//        -I
//        C:\Users\bsavanovic\Desktop\EndDevice\ZigBeeEndDevice\Projects\zstack\Samples\GenericApp\CC2530DB\..\..\..\..\..\Components\mac\include\
//        -I
//        C:\Users\bsavanovic\Desktop\EndDevice\ZigBeeEndDevice\Projects\zstack\Samples\GenericApp\CC2530DB\..\..\..\..\..\Components\mac\high_level\
//        -I
//        C:\Users\bsavanovic\Desktop\EndDevice\ZigBeeEndDevice\Projects\zstack\Samples\GenericApp\CC2530DB\..\..\..\..\..\Components\mac\low_level\srf04\
//        -I
//        C:\Users\bsavanovic\Desktop\EndDevice\ZigBeeEndDevice\Projects\zstack\Samples\GenericApp\CC2530DB\..\..\..\..\..\Components\mac\low_level\srf04\single_chip\
//        -I
//        C:\Users\bsavanovic\Desktop\EndDevice\ZigBeeEndDevice\Projects\zstack\Samples\GenericApp\CC2530DB\..\..\..\..\..\Components\mt\
//        -I
//        C:\Users\bsavanovic\Desktop\EndDevice\ZigBeeEndDevice\Projects\zstack\Samples\GenericApp\CC2530DB\..\..\..\..\..\Components\osal\include\
//        -I
//        C:\Users\bsavanovic\Desktop\EndDevice\ZigBeeEndDevice\Projects\zstack\Samples\GenericApp\CC2530DB\..\..\..\..\..\Components\services\saddr\
//        -I
//        C:\Users\bsavanovic\Desktop\EndDevice\ZigBeeEndDevice\Projects\zstack\Samples\GenericApp\CC2530DB\..\..\..\..\..\Components\services\sdata\
//        -I
//        C:\Users\bsavanovic\Desktop\EndDevice\ZigBeeEndDevice\Projects\zstack\Samples\GenericApp\CC2530DB\..\..\..\..\..\Components\stack\af\
//        -I
//        C:\Users\bsavanovic\Desktop\EndDevice\ZigBeeEndDevice\Projects\zstack\Samples\GenericApp\CC2530DB\..\..\..\..\..\Components\stack\nwk\
//        -I
//        C:\Users\bsavanovic\Desktop\EndDevice\ZigBeeEndDevice\Projects\zstack\Samples\GenericApp\CC2530DB\..\..\..\..\..\Components\stack\sapi\
//        -I
//        C:\Users\bsavanovic\Desktop\EndDevice\ZigBeeEndDevice\Projects\zstack\Samples\GenericApp\CC2530DB\..\..\..\..\..\Components\stack\sec\
//        -I
//        C:\Users\bsavanovic\Desktop\EndDevice\ZigBeeEndDevice\Projects\zstack\Samples\GenericApp\CC2530DB\..\..\..\..\..\Components\stack\sys\
//        -I
//        C:\Users\bsavanovic\Desktop\EndDevice\ZigBeeEndDevice\Projects\zstack\Samples\GenericApp\CC2530DB\..\..\..\..\..\Components\stack\zdo\
//        -I
//        C:\Users\bsavanovic\Desktop\EndDevice\ZigBeeEndDevice\Projects\zstack\Samples\GenericApp\CC2530DB\..\..\..\..\..\Components\zmac\
//        -I
//        C:\Users\bsavanovic\Desktop\EndDevice\ZigBeeEndDevice\Projects\zstack\Samples\GenericApp\CC2530DB\..\..\..\..\..\Components\zmac\f8w\
//        -I
//        C:\Users\bsavanovic\Desktop\EndDevice\ZigBeeEndDevice\Components\hal\BME280_driver-master\
//        -Ohz --require_prototypes
//    List file          =  
//        C:\Users\bsavanovic\Desktop\EndDevice\ZigBeeEndDevice\Projects\zstack\Samples\GenericApp\CC2530DB\EndDeviceEB\List\GenericApp.s51
//
///////////////////////////////////////////////////////////////////////////////

        NAME GenericApp

        RTMODEL "__SystemLibrary", "CLib"
        RTMODEL "__calling_convention", "xdata_reentrant"
        RTMODEL "__code_model", "banked"
        RTMODEL "__core", "plain"
        RTMODEL "__data_model", "large"
        RTMODEL "__dptr_size", "16"
        RTMODEL "__extended_stack", "disabled"
        RTMODEL "__iar_require _formatted_write", ""
        RTMODEL "__location_for_constants", "data"
        RTMODEL "__number_of_dptrs", "1"
        RTMODEL "__rt_version", "1"

        RSEG DOVERLAY:DATA:NOROOT(0)
        RSEG IOVERLAY:IDATA:NOROOT(0)
        RSEG ISTACK:IDATA:NOROOT(0)
        RSEG PSTACK:XDATA:NOROOT(0)
        RSEG XSTACK:XDATA:NOROOT(0)

        EXTERN ?V0
        EXTERN ?V1
        EXTERN ?V2
        EXTERN ?V3
        EXTERN ?V4
        EXTERN ?V5
        EXTERN ?V6
        EXTERN ?V7
        EXTERN ?ALLOC_XSTACK8
        EXTERN ?BANKED_ENTER_XDATA
        EXTERN ?BANKED_LEAVE_XDATA
        EXTERN ?BDISPATCH
        EXTERN ?BRET
        EXTERN ?DEALLOC_XSTACK8
        EXTERN ?L_MOV_X
        EXTERN ?MOVE_LONG8_XDATA_XDATA
        EXTERN ?PUSH_XSTACK8_X_FOUR
        EXTERN ?PUSH_XSTACK_I_FOUR
        EXTERN ?PUSH_XSTACK_I_ONE
        EXTERN ?PUSH_XSTACK_I_TWO
        EXTERN ?UL_DIV_MOD
        EXTERN ?UL_SHR
        EXTERN ?US_SWITCH_SPARSE
        EXTERN ?XSP
        EXTERN ?XSTACK_DISP0_8
        EXTERN ?XSTACK_DISP100_8
        EXTERN ?XSTACK_DISP101_8
        EXTERN ?XSTACK_DISP102_8
        EXTERN __INIT_XDATA_I
        EXTERN __INIT_XDATA_Z

        PUBLIC `??GenericApp_Init::?relay`
        FUNCTION `??GenericApp_Init::?relay`,0203H
        PUBLIC `??GenericApp_ProcessEvent::?relay`
        FUNCTION `??GenericApp_ProcessEvent::?relay`,0203H
        FUNCTION `??GenericApp_SendTheMessage::?relay`,0203H
        PUBLIC `??MagneticSwitch_SendTheMessage::?relay`
        FUNCTION `??MagneticSwitch_SendTheMessage::?relay`,0203H
        PUBLIC `??MotionSensor_SendTheMessage::?relay`
        FUNCTION `??MotionSensor_SendTheMessage::?relay`,0203H
        PUBLIC `??magneticSwitchInit::?relay`
        FUNCTION `??magneticSwitchInit::?relay`,0203H
        PUBLIC `??magneticSwitch_DoorDetection::?relay`
        FUNCTION `??magneticSwitch_DoorDetection::?relay`,0203H
        PUBLIC `??motionDetection::?relay`
        FUNCTION `??motionDetection::?relay`,0203H
        PUBLIC `??motionInit::?relay`
        FUNCTION `??motionInit::?relay`,0203H
        PUBLIC GenericApp_ClusterList
        PUBLIC GenericApp_DstAddr
        PUBLIC GenericApp_DstAddr1
        PUBLIC GenericApp_DstAddr2
        PUBLIC GenericApp_Init
        FUNCTION GenericApp_Init,021203H
        ARGFRAME XSTACK, 0, STACK
        LOCFRAME XSTACK, 9, STACK
        PUBLIC GenericApp_NwkState
        PUBLIC GenericApp_ProcessEvent
        FUNCTION GenericApp_ProcessEvent,0a1203H
        ARGFRAME XSTACK, 0, STACK
        LOCFRAME XSTACK, 32, STACK
        FUNCTION GenericApp_SendTheMessage,0a1203H
        ARGFRAME XSTACK, 23, STACK
        ARGFRAME IOVERLAY, 0, STATIC
        ARGFRAME DOVERLAY, 0, STATIC
        LOCFRAME XSTACK, 49, STACK
        PUBLIC GenericApp_SimpleDesc
        PUBLIC GenericApp_TaskID
        PUBLIC GenericApp_TransID
        PUBLIC GenericApp_epDesc
        PUBLIC MagneticSwitch_SendTheMessage
        FUNCTION MagneticSwitch_SendTheMessage,0a1203H
        ARGFRAME XSTACK, 0, STACK
        LOCFRAME XSTACK, 23, STACK
        PUBLIC MotionSensor_SendTheMessage
        FUNCTION MotionSensor_SendTheMessage,0a1203H
        ARGFRAME XSTACK, 0, STACK
        LOCFRAME XSTACK, 21, STACK
        PUBWEAK P1DIR
        PUBWEAK P1SEL
        PUBWEAK P2INP
        PUBLIC SAddr
        PUBWEAK _A_P0
        PUBWEAK _A_P2
        PUBWEAK __Constant_64
        PUBWEAK __Constant_fa0
        PUBLIC brojac
        PUBLIC coin
        PUBLIC counter
        PUBLIC dataBuffer
        PUBLIC index
        PUBLIC keyPressSW4
        PUBLIC magneticSwitchInit
        FUNCTION magneticSwitchInit,0203H
        ARGFRAME XSTACK, 0, STACK
        PUBLIC magneticSwitch_DoorDetection
        FUNCTION magneticSwitch_DoorDetection,0203H
        ARGFRAME XSTACK, 0, STACK
        PUBLIC motionDetection
        FUNCTION motionDetection,0203H
        ARGFRAME XSTACK, 12, STACK
        ARGFRAME IOVERLAY, 0, STATIC
        ARGFRAME DOVERLAY, 0, STATIC
        PUBLIC motionInit
        FUNCTION motionInit,0203H
        ARGFRAME XSTACK, 0, STACK
        PUBLIC prevData
        PUBLIC prevValue
        PUBLIC shortAddressOfEndDevice
        
          CFI Names cfiNames0
          CFI StackFrame CFA_SP SP IDATA
          CFI StackFrame CFA_PSP16 PSP16 XDATA
          CFI StackFrame CFA_XSP16 XSP16 XDATA
          CFI StaticOverlayFrame CFA_IOVERLAY IOVERLAY
          CFI StaticOverlayFrame CFA_DOVERLAY DOVERLAY
          CFI Resource `PSW.CY`:1, `B.BR0`:1, `B.BR1`:1, `B.BR2`:1, `B.BR3`:1
          CFI Resource `B.BR4`:1, `B.BR5`:1, `B.BR6`:1, `B.BR7`:1, `VB.BR8`:1
          CFI Resource `VB.BR9`:1, `VB.BR10`:1, `VB.BR11`:1, `VB.BR12`:1
          CFI Resource `VB.BR13`:1, `VB.BR14`:1, `VB.BR15`:1, VB:8, B:8, A:8
          CFI Resource PSW:8, DPL0:8, DPH0:8, R0:8, R1:8, R2:8, R3:8, R4:8, R5:8
          CFI Resource R6:8, R7:8, V0:8, V1:8, V2:8, V3:8, V4:8, V5:8, V6:8, V7:8
          CFI Resource V8:8, V9:8, V10:8, V11:8, V12:8, V13:8, V14:8, V15:8, SP:8
          CFI Resource PSPH:8, PSPL:8, PSP16:16, XSPH:8, XSPL:8, XSP16:16
          CFI VirtualResource ?RET:24
          CFI Resource ?BRET_EXT:8
          CFI VirtualResource ?RET_HIGH:8, ?RET_LOW:8
          CFI ResourceParts PSP16 PSPH, PSPL
          CFI ResourceParts XSP16 XSPH, XSPL
          CFI ResourceParts ?RET ?BRET_EXT, ?RET_HIGH, ?RET_LOW
          CFI EndNames cfiNames0
        
          CFI Common cfiCommon0 Using cfiNames0
          CFI CodeAlign 1
          CFI DataAlign -1
          CFI ReturnAddress ?RET CODE
          CFI CFA_DOVERLAY Used
          CFI CFA_IOVERLAY Used
          CFI CFA_SP SP+-3
          CFI CFA_PSP16 PSP16+0
          CFI CFA_XSP16 XSP16+0
          CFI `PSW.CY` SameValue
          CFI `B.BR0` SameValue
          CFI `B.BR1` SameValue
          CFI `B.BR2` SameValue
          CFI `B.BR3` SameValue
          CFI `B.BR4` SameValue
          CFI `B.BR5` SameValue
          CFI `B.BR6` SameValue
          CFI `B.BR7` SameValue
          CFI `VB.BR8` SameValue
          CFI `VB.BR9` SameValue
          CFI `VB.BR10` SameValue
          CFI `VB.BR11` SameValue
          CFI `VB.BR12` SameValue
          CFI `VB.BR13` SameValue
          CFI `VB.BR14` SameValue
          CFI `VB.BR15` SameValue
          CFI VB SameValue
          CFI B Undefined
          CFI A Undefined
          CFI PSW SameValue
          CFI DPL0 SameValue
          CFI DPH0 SameValue
          CFI R0 Undefined
          CFI R1 Undefined
          CFI R2 Undefined
          CFI R3 Undefined
          CFI R4 Undefined
          CFI R5 Undefined
          CFI R6 SameValue
          CFI R7 SameValue
          CFI V0 SameValue
          CFI V1 SameValue
          CFI V2 SameValue
          CFI V3 SameValue
          CFI V4 SameValue
          CFI V5 SameValue
          CFI V6 SameValue
          CFI V7 SameValue
          CFI V8 SameValue
          CFI V9 SameValue
          CFI V10 SameValue
          CFI V11 SameValue
          CFI V12 SameValue
          CFI V13 SameValue
          CFI V14 SameValue
          CFI V15 SameValue
          CFI PSPH Undefined
          CFI PSPL Undefined
          CFI XSPH Undefined
          CFI XSPL Undefined
          CFI ?RET Concat
          CFI ?BRET_EXT Frame(CFA_SP, 3)
          CFI ?RET_HIGH Frame(CFA_SP, 2)
          CFI ?RET_LOW Frame(CFA_SP, 1)
          CFI EndCommon cfiCommon0
        
        
          CFI Common cfiCommon1 Using cfiNames0
          CFI CodeAlign 1
          CFI DataAlign -1
          CFI ReturnAddress ?RET CODE
          CFI CFA_DOVERLAY Used
          CFI CFA_IOVERLAY Used
          CFI CFA_SP SP+-2
          CFI CFA_PSP16 PSP16+0
          CFI CFA_XSP16 XSP16+0
          CFI `PSW.CY` SameValue
          CFI `B.BR0` SameValue
          CFI `B.BR1` SameValue
          CFI `B.BR2` SameValue
          CFI `B.BR3` SameValue
          CFI `B.BR4` SameValue
          CFI `B.BR5` SameValue
          CFI `B.BR6` SameValue
          CFI `B.BR7` SameValue
          CFI `VB.BR8` SameValue
          CFI `VB.BR9` SameValue
          CFI `VB.BR10` SameValue
          CFI `VB.BR11` SameValue
          CFI `VB.BR12` SameValue
          CFI `VB.BR13` SameValue
          CFI `VB.BR14` SameValue
          CFI `VB.BR15` SameValue
          CFI VB SameValue
          CFI B SameValue
          CFI A SameValue
          CFI PSW SameValue
          CFI DPL0 SameValue
          CFI DPH0 SameValue
          CFI R0 SameValue
          CFI R1 SameValue
          CFI R2 SameValue
          CFI R3 SameValue
          CFI R4 SameValue
          CFI R5 SameValue
          CFI R6 SameValue
          CFI R7 SameValue
          CFI V0 SameValue
          CFI V1 SameValue
          CFI V2 SameValue
          CFI V3 SameValue
          CFI V4 SameValue
          CFI V5 SameValue
          CFI V6 SameValue
          CFI V7 SameValue
          CFI V8 SameValue
          CFI V9 SameValue
          CFI V10 SameValue
          CFI V11 SameValue
          CFI V12 SameValue
          CFI V13 SameValue
          CFI V14 SameValue
          CFI V15 SameValue
          CFI PSPH Undefined
          CFI PSPL Undefined
          CFI XSPH Undefined
          CFI XSPL Undefined
          CFI ?RET Concat
          CFI ?BRET_EXT SameValue
          CFI ?RET_HIGH Frame(CFA_SP, 2)
          CFI ?RET_LOW Frame(CFA_SP, 1)
          CFI EndCommon cfiCommon1
        
AF_DataRequest      SYMBOL "AF_DataRequest"
`??AF_DataRequest::?relay` SYMBOL "?relay", AF_DataRequest
HalLcdWriteString   SYMBOL "HalLcdWriteString"
`??HalLcdWriteString::?relay` SYMBOL "?relay", HalLcdWriteString
HalLedSet           SYMBOL "HalLedSet"
`??HalLedSet::?relay` SYMBOL "?relay", HalLedSet
NLME_GetShortAddr   SYMBOL "NLME_GetShortAddr"
`??NLME_GetShortAddr::?relay` SYMBOL "?relay", NLME_GetShortAddr
RegisterForKeys     SYMBOL "RegisterForKeys"
`??RegisterForKeys::?relay` SYMBOL "?relay", RegisterForKeys
ZDO_ParseEPListRsp  SYMBOL "ZDO_ParseEPListRsp"
`??ZDO_ParseEPListRsp::?relay` SYMBOL "?relay", ZDO_ParseEPListRsp
ZDO_RegisterForZDOMsg SYMBOL "ZDO_RegisterForZDOMsg"
`??ZDO_RegisterForZDOMsg::?relay` SYMBOL "?relay", ZDO_RegisterForZDOMsg
ZDP_EndDeviceBindReq SYMBOL "ZDP_EndDeviceBindReq"
`??ZDP_EndDeviceBindReq::?relay` SYMBOL "?relay", ZDP_EndDeviceBindReq
afRegister          SYMBOL "afRegister"
`??afRegister::?relay` SYMBOL "?relay", afRegister
bme280_data_readout SYMBOL "bme280_data_readout"
`??bme280_data_readout::?relay` SYMBOL "?relay", bme280_data_readout
osal_mem_free       SYMBOL "osal_mem_free"
`??osal_mem_free::?relay` SYMBOL "?relay", osal_mem_free
osal_msg_deallocate SYMBOL "osal_msg_deallocate"
`??osal_msg_deallocate::?relay` SYMBOL "?relay", osal_msg_deallocate
osal_msg_receive    SYMBOL "osal_msg_receive"
`??osal_msg_receive::?relay` SYMBOL "?relay", osal_msg_receive
osal_set_event      SYMBOL "osal_set_event"
`??osal_set_event::?relay` SYMBOL "?relay", osal_set_event
osal_start_timerEx  SYMBOL "osal_start_timerEx"
`??osal_start_timerEx::?relay` SYMBOL "?relay", osal_start_timerEx
osal_strlen         SYMBOL "osal_strlen"
`??osal_strlen::?relay` SYMBOL "?relay", osal_strlen
sprintf             SYMBOL "sprintf"
`??sprintf::?relay` SYMBOL "?relay", sprintf
uartSend            SYMBOL "uartSend"
`??uartSend::?relay` SYMBOL "?relay", uartSend
GenericApp_Init     SYMBOL "GenericApp_Init"
`??GenericApp_Init::?relay` SYMBOL "?relay", GenericApp_Init
GenericApp_ProcessEvent SYMBOL "GenericApp_ProcessEvent"
`??GenericApp_ProcessEvent::?relay` SYMBOL "?relay", GenericApp_ProcessEvent
MagneticSwitch_SendTheMessage SYMBOL "MagneticSwitch_SendTheMessage"
`??MagneticSwitch_SendTheMessage::?relay` SYMBOL "?relay", MagneticSwitch_SendTheMessage
MotionSensor_SendTheMessage SYMBOL "MotionSensor_SendTheMessage"
`??MotionSensor_SendTheMessage::?relay` SYMBOL "?relay", MotionSensor_SendTheMessage
magneticSwitchInit  SYMBOL "magneticSwitchInit"
`??magneticSwitchInit::?relay` SYMBOL "?relay", magneticSwitchInit
magneticSwitch_DoorDetection SYMBOL "magneticSwitch_DoorDetection"
`??magneticSwitch_DoorDetection::?relay` SYMBOL "?relay", magneticSwitch_DoorDetection
motionDetection     SYMBOL "motionDetection"
`??motionDetection::?relay` SYMBOL "?relay", motionDetection
motionInit          SYMBOL "motionInit"
`??motionInit::?relay` SYMBOL "?relay", motionInit

        EXTERN `??AF_DataRequest::?relay`
        FUNCTION `??AF_DataRequest::?relay`,00H
        EXTERN `??HalLcdWriteString::?relay`
        FUNCTION `??HalLcdWriteString::?relay`,00H
        EXTERN `??HalLedSet::?relay`
        FUNCTION `??HalLedSet::?relay`,00H
        EXTERN `??NLME_GetShortAddr::?relay`
        FUNCTION `??NLME_GetShortAddr::?relay`,00H
        EXTERN `??RegisterForKeys::?relay`
        FUNCTION `??RegisterForKeys::?relay`,00H
        EXTERN `??ZDO_ParseEPListRsp::?relay`
        FUNCTION `??ZDO_ParseEPListRsp::?relay`,00H
        EXTERN `??ZDO_RegisterForZDOMsg::?relay`
        FUNCTION `??ZDO_RegisterForZDOMsg::?relay`,00H
        EXTERN `??ZDP_EndDeviceBindReq::?relay`
        FUNCTION `??ZDP_EndDeviceBindReq::?relay`,00H
        EXTERN `??afRegister::?relay`
        FUNCTION `??afRegister::?relay`,00H
        EXTERN `??bme280_data_readout::?relay`
        FUNCTION `??bme280_data_readout::?relay`,00H
        EXTERN `??osal_mem_free::?relay`
        FUNCTION `??osal_mem_free::?relay`,00H
        EXTERN `??osal_msg_deallocate::?relay`
        FUNCTION `??osal_msg_deallocate::?relay`,00H
        EXTERN `??osal_msg_receive::?relay`
        FUNCTION `??osal_msg_receive::?relay`,00H
        EXTERN `??osal_set_event::?relay`
        FUNCTION `??osal_set_event::?relay`,00H
        EXTERN `??osal_start_timerEx::?relay`
        FUNCTION `??osal_start_timerEx::?relay`,00H
        EXTERN `??osal_strlen::?relay`
        FUNCTION `??osal_strlen::?relay`,00H
        EXTERN `??sprintf::?relay`
        FUNCTION `??sprintf::?relay`,00H
        EXTERN `??uartSend::?relay`
        FUNCTION `??uartSend::?relay`,00H
        EXTERN AF_DataRequest
        FUNCTION AF_DataRequest,0202H
        ARGFRAME ISTACK, 0, STACK
        ARGFRAME PSTACK, 0, STACK
        ARGFRAME XSTACK, 49, STACK
        ARGFRAME IOVERLAY, 0, STATIC
        ARGFRAME DOVERLAY, 0, STATIC
        EXTERN HalLcdWriteString
        FUNCTION HalLcdWriteString,0202H
        ARGFRAME ISTACK, 0, STACK
        ARGFRAME PSTACK, 0, STACK
        ARGFRAME XSTACK, 40, STACK
        ARGFRAME IOVERLAY, 0, STATIC
        ARGFRAME DOVERLAY, 0, STATIC
        EXTERN HalLedSet
        FUNCTION HalLedSet,0202H
        ARGFRAME ISTACK, 0, STACK
        ARGFRAME PSTACK, 0, STACK
        ARGFRAME XSTACK, 23, STACK
        ARGFRAME IOVERLAY, 0, STATIC
        ARGFRAME DOVERLAY, 0, STATIC
        EXTERN NLME_GetShortAddr
        FUNCTION NLME_GetShortAddr,0202H
        ARGFRAME ISTACK, 0, STACK
        ARGFRAME PSTACK, 0, STACK
        ARGFRAME XSTACK, 23, STACK
        ARGFRAME IOVERLAY, 0, STATIC
        ARGFRAME DOVERLAY, 0, STATIC
        EXTERN RegisterForKeys
        FUNCTION RegisterForKeys,0202H
        ARGFRAME ISTACK, 0, STACK
        ARGFRAME PSTACK, 0, STACK
        ARGFRAME XSTACK, 9, STACK
        ARGFRAME IOVERLAY, 0, STATIC
        ARGFRAME DOVERLAY, 0, STATIC
        EXTERN Value
        EXTERN ZDO_ParseEPListRsp
        FUNCTION ZDO_ParseEPListRsp,0202H
        ARGFRAME ISTACK, 0, STACK
        ARGFRAME PSTACK, 0, STACK
        ARGFRAME XSTACK, 23, STACK
        ARGFRAME IOVERLAY, 0, STATIC
        ARGFRAME DOVERLAY, 0, STATIC
        EXTERN ZDO_RegisterForZDOMsg
        FUNCTION ZDO_RegisterForZDOMsg,0202H
        ARGFRAME ISTACK, 0, STACK
        ARGFRAME PSTACK, 0, STACK
        ARGFRAME XSTACK, 9, STACK
        ARGFRAME IOVERLAY, 0, STATIC
        ARGFRAME DOVERLAY, 0, STATIC
        EXTERN ZDP_EndDeviceBindReq
        FUNCTION ZDP_EndDeviceBindReq,0202H
        ARGFRAME ISTACK, 0, STACK
        ARGFRAME PSTACK, 0, STACK
        ARGFRAME XSTACK, 32, STACK
        ARGFRAME IOVERLAY, 0, STATIC
        ARGFRAME DOVERLAY, 0, STATIC
        EXTERN afRegister
        FUNCTION afRegister,0202H
        ARGFRAME ISTACK, 0, STACK
        ARGFRAME PSTACK, 0, STACK
        ARGFRAME XSTACK, 9, STACK
        ARGFRAME IOVERLAY, 0, STATIC
        ARGFRAME DOVERLAY, 0, STATIC
        EXTERN bme280
        EXTERN bme280_data_readout
        FUNCTION bme280_data_readout,0202H
        ARGFRAME ISTACK, 0, STACK
        ARGFRAME PSTACK, 0, STACK
        ARGFRAME XSTACK, 40, STACK
        ARGFRAME IOVERLAY, 0, STATIC
        ARGFRAME DOVERLAY, 0, STATIC
        EXTERN osal_mem_free
        FUNCTION osal_mem_free,0202H
        ARGFRAME ISTACK, 0, STACK
        ARGFRAME PSTACK, 0, STACK
        ARGFRAME XSTACK, 23, STACK
        ARGFRAME IOVERLAY, 0, STATIC
        ARGFRAME DOVERLAY, 0, STATIC
        EXTERN osal_msg_deallocate
        FUNCTION osal_msg_deallocate,0202H
        ARGFRAME ISTACK, 0, STACK
        ARGFRAME PSTACK, 0, STACK
        ARGFRAME XSTACK, 23, STACK
        ARGFRAME IOVERLAY, 0, STATIC
        ARGFRAME DOVERLAY, 0, STATIC
        EXTERN osal_msg_receive
        FUNCTION osal_msg_receive,0202H
        ARGFRAME ISTACK, 0, STACK
        ARGFRAME PSTACK, 0, STACK
        ARGFRAME XSTACK, 23, STACK
        ARGFRAME IOVERLAY, 0, STATIC
        ARGFRAME DOVERLAY, 0, STATIC
        EXTERN osal_set_event
        FUNCTION osal_set_event,0202H
        ARGFRAME ISTACK, 0, STACK
        ARGFRAME PSTACK, 0, STACK
        ARGFRAME XSTACK, 23, STACK
        ARGFRAME IOVERLAY, 0, STATIC
        ARGFRAME DOVERLAY, 0, STATIC
        EXTERN osal_start_timerEx
        FUNCTION osal_start_timerEx,0202H
        ARGFRAME ISTACK, 0, STACK
        ARGFRAME PSTACK, 0, STACK
        ARGFRAME XSTACK, 27, STACK
        ARGFRAME IOVERLAY, 0, STATIC
        ARGFRAME DOVERLAY, 0, STATIC
        EXTERN osal_strlen
        FUNCTION osal_strlen,0202H
        ARGFRAME ISTACK, 0, STACK
        ARGFRAME PSTACK, 0, STACK
        ARGFRAME XSTACK, 40, STACK
        ARGFRAME IOVERLAY, 0, STATIC
        ARGFRAME DOVERLAY, 0, STATIC
        EXTERN sprintf
        FUNCTION sprintf,0202H
        ARGFRAME ISTACK, 0, STACK
        ARGFRAME PSTACK, 0, STACK
        ARGFRAME XSTACK, 44, STACK
        ARGFRAME IOVERLAY, 0, STATIC
        ARGFRAME DOVERLAY, 0, STATIC
        EXTERN uartSend
        FUNCTION uartSend,0202H
        ARGFRAME ISTACK, 0, STACK
        ARGFRAME PSTACK, 0, STACK
        ARGFRAME XSTACK, 23, STACK
        ARGFRAME IOVERLAY, 0, STATIC
        ARGFRAME DOVERLAY, 0, STATIC

// C:\Users\bsavanovic\Desktop\EndDevice\ZigBeeEndDevice\Projects\zstack\Samples\GenericApp\Source\GenericApp.c
//    1 /******************************************************************************
//    2   Filename:       GenericApp.c
//    3   Revised:        $Date: 2014-09-07 13:36:30 -0700 (Sun, 07 Sep 2014) $
//    4   Revision:       $Revision: 40046 $
//    5 
//    6   Description:    Generic Application (no Profile).
//    7 
//    8 
//    9   Copyright 2004-2014 Texas Instruments Incorporated. All rights reserved.
//   10 
//   11   IMPORTANT: Your use of this Software is limited to those specific rights
//   12   granted under the terms of a software license agreement between the user
//   13   who downloaded the software, his/her employer (which must be your employer)
//   14   and Texas Instruments Incorporated (the "License"). You may not use this
//   15   Software unless you agree to abide by the terms of the License. The License
//   16   limits your use, and you acknowledge, that the Software may not be modified,
//   17   copied or distributed unless embedded on a Texas Instruments microcontroller
//   18   or used solely and exclusively in conjunction with a Texas Instruments radio
//   19   frequency transceiver, which is integrated into your product. Other than for
//   20   the foregoing purpose, you may not use, reproduce, copy, prepare derivative
//   21   works of, modify, distribute, perform, display or sell this Software and/or
//   22   its documentation for any purpose.
//   23 
//   24   YOU FURTHER ACKNOWLEDGE AND AGREE THAT THE SOFTWARE AND DOCUMENTATION ARE
//   25   PROVIDED “AS IS” WITHOUT WARRANTY OF ANY KIND, EITHER EXPRESS OR IMPLIED,
//   26   INCLUDING WITHOUT LIMITATION, ANY WARRANTY OF MERCHANTABILITY, TITLE,
//   27   NON-INFRINGEMENT AND FITNESS FOR A PARTICULAR PURPOSE. IN NO EVENT SHALL
//   28   TEXAS INSTRUMENTS OR ITS LICENSORS BE LIABLE OR OBLIGATED UNDER CONTRACT,
//   29   NEGLIGENCE, STRICT LIABILITY, CONTRIBUTION, BREACH OF WARRANTY, OR OTHER
//   30   LEGAL EQUITABLE THEORY ANY DIRECT OR INDIRECT DAMAGES OR EXPENSES
//   31   INCLUDING BUT NOT LIMITED TO ANY INCIDENTAL, SPECIAL, INDIRECT, PUNITIVE
//   32   OR CONSEQUENTIAL DAMAGES, LOST PROFITS OR LOST DATA, COST OF PROCUREMENT
//   33   OF SUBSTITUTE GOODS, TECHNOLOGY, SERVICES, OR ANY CLAIMS BY THIRD PARTIES
//   34   (INCLUDING BUT NOT LIMITED TO ANY DEFENSE THEREOF), OR OTHER SIMILAR COSTS.
//   35 
//   36   Should you have any questions regarding your right to use this Software,
//   37   contact Texas Instruments Incorporated at www.TI.com.
//   38 ******************************************************************************/
//   39 
//   40 /*********************************************************************
//   41   This application isn't intended to do anything useful - it is
//   42   intended to be a simple example of an application's structure.
//   43 
//   44   This application periodically sends a "Hello World" message to
//   45   another "Generic" application (see 'txMsgDelay'). The application
//   46   will also receive "Hello World" packets.
//   47 
//   48   This application doesn't have a profile, so it handles everything
//   49   directly - by itself.
//   50 
//   51   Key control:
//   52     SW1:  changes the delay between TX packets
//   53     SW2:  initiates end device binding
//   54     SW3:
//   55     SW4:  initiates a match description request
//   56 *********************************************************************/
//   57 
//   58 /*********************************************************************
//   59  * INCLUDES
//   60  */
//   61 #include "OSAL.h"
//   62 #include "AF.h"
//   63 #include "ZDApp.h"
//   64 #include "ZDObject.h"
//   65 #include "ZDProfile.h"
//   66 #include "ZComDef.h"
//   67 
//   68 
//   69 #include "GenericApp.h"
//   70 #include "DebugTrace.h"
//   71 
//   72 #if !defined( WIN32 ) || defined( ZBIT )
//   73   #include "OnBoard.h"

        ASEGN SFR_AN:DATA:NOROOT,080H
// union <unnamed> volatile __sfr _A_P0
_A_P0:
        DATA8
        DS 1

        ASEGN SFR_AN:DATA:NOROOT,0a0H
// union <unnamed> volatile __sfr _A_P2
_A_P2:
        DATA8
        DS 1

        ASEGN SFR_AN:DATA:NOROOT,0f4H
// unsigned char volatile __sfr P1SEL
P1SEL:
        DATA8
        DS 1

        ASEGN SFR_AN:DATA:NOROOT,0f7H
// unsigned char volatile __sfr P2INP
P2INP:
        DATA8
        DS 1

        ASEGN SFR_AN:DATA:NOROOT,0feH
// unsigned char volatile __sfr P1DIR
P1DIR:
        DATA8
        DS 1
//   74 #endif
//   75 
//   76 /* HAL */
//   77 #include "hal_lcd.h"
//   78 #include "hal_led.h"
//   79 #include "hal_key.h"
//   80 #include "hal_uart.h"
//   81 #include "hal_adc.h"
//   82 
//   83 /* RTOS */
//   84 #if defined( IAR_ARMCM3_LM )
//   85 #include "RTOS_App.h"
//   86 #endif
//   87 
//   88    
//   89 #include "bme280.h"
//   90 
//   91 #include <stdio.h>
//   92 #include <string.h>
//   93    
//   94    
//   95 /*********************************************************************
//   96  * MACROS
//   97  */
//   98 
//   99 #define T_MIN 					        23
//  100 #define T_MAX						24   
//  101    
//  102    
//  103 
//  104 #define GENERICAPP_ENDPOINT           10
//  105 
//  106 #define GENERICAPP_PROFID             0x0F04
//  107 #define GENERICAPP_DEVICEID           0x0001
//  108 #define GENERICAPP_DEVICE_VERSION     0
//  109 #define GENERICAPP_FLAGS              0
//  110 
//  111 #define GENERICAPP_MAX_CLUSTERS       1
//  112 #define GENERICAPP_CLUSTERID          1
//  113 
//  114 
//  115 #define MAX_NUMBER_OF_ENDDEVICES      10
//  116 
//  117 
//  118 // magnetic switch macros
//  119 #define DOOR_CLOSED_DETECTION         P2_0
//  120 #define TRUE                          1
//  121 #define CLOSED                        1
//  122 #define OPENED                        0
//  123 // magnetic switch macros end
//  124 
//  125 #define MOTION_DETECTION_PIN          P1_2  
//  126 
//  127 
//  128 /*********************************************************************
//  129  * CONSTANTS
//  130  */
//  131 
//  132 /*********************************************************************
//  133  * TYPEDEFS
//  134  */
//  135 
//  136 /*********************************************************************
//  137  * GLOBAL VARIABLES
//  138  */
//  139 
//  140 extern struct bme280_t bme280;
//  141 extern struct value Value;
//  142 extern signed char flag;   
//  143 

        RSEG XDATA_Z:XDATA:NOROOT(0)
        DATA8
//  144  struct value prevValue;
prevValue:
        DS 12
        REQUIRE __INIT_XDATA_Z
//  145  

        RSEG XDATA_I:XDATA:NOROOT(0)
//  146 uint8 coin = 1;
coin:
        DATA8
        DS 1
        REQUIRE `?<Initializer for coin>`
        REQUIRE __INIT_XDATA_I

        RSEG XDATA_Z:XDATA:NOROOT(0)
        DATA8
//  147 char prevData = 0;
prevData:
        DS 1
        REQUIRE __INIT_XDATA_Z
//  148 
//  149 

        RSEG XDATA_I:XDATA:NOROOT(0)
//  150 uint8 keyPressSW4 = 1;
keyPressSW4:
        DATA8
        DS 1
        REQUIRE `?<Initializer for keyPressSW4>`
        REQUIRE __INIT_XDATA_I
//  151 

        RSEG XDATA_Z:XDATA:NOROOT(0)
        DATA8
//  152 uint8 dataBuffer[10];
dataBuffer:
        DS 10
        REQUIRE __INIT_XDATA_Z
//  153    

        RSEG XDATA_Z:XDATA:NOROOT(0)
        DATA16
//  154 int counter = 0;
counter:
        DS 2
        REQUIRE __INIT_XDATA_Z
//  155 
//  156 

        RSEG XDATA_Z:XDATA:NOROOT(0)
        DATA8
//  157 uint16 shortAddressOfEndDevice[MAX_NUMBER_OF_ENDDEVICES] = {0,0};
shortAddressOfEndDevice:
        DS 20
        REQUIRE __INIT_XDATA_Z

        RSEG XDATA_Z:XDATA:NOROOT(0)
        DATA8
//  158 uint16 SAddr[MAX_NUMBER_OF_ENDDEVICES] = {0,0};
SAddr:
        DS 20
        REQUIRE __INIT_XDATA_Z
//  159 

        RSEG XDATA_Z:XDATA:NOROOT(0)
        DATA8
//  160 uint8 index = 0;
index:
        DS 1
        REQUIRE __INIT_XDATA_Z
//  161 

        RSEG XDATA_Z:XDATA:NOROOT(0)
        DATA16
//  162 int brojac = 0; 
brojac:
        DS 2
        REQUIRE __INIT_XDATA_Z
//  163 
//  164 
//  165 // This list should be filled with Application specific Cluster IDs.

        RSEG XDATA_ROM_C:CONST:REORDER:NOROOT(0)
        DATA16
//  166 const cId_t GenericApp_ClusterList[GENERICAPP_MAX_CLUSTERS] =
GenericApp_ClusterList:
        DW 1
//  167 {
//  168   GENERICAPP_CLUSTERID
//  169 };
//  170 

        RSEG XDATA_ROM_C:CONST:REORDER:NOROOT(0)
        DATA8
//  171 const SimpleDescriptionFormat_t GenericApp_SimpleDesc =
GenericApp_SimpleDesc:
        DB 10
        DATA16
        DW 3844
        DW 1
        DATA8
        DB 0
        DB 1
        DATA16
        DW GenericApp_ClusterList
        DATA8
        DB 1
        DATA16
        DW GenericApp_ClusterList
//  172 {
//  173   GENERICAPP_ENDPOINT,              //  int Endpoint;
//  174   GENERICAPP_PROFID,                //  uint16 AppProfId[2];
//  175   GENERICAPP_DEVICEID,              //  uint16 AppDeviceId[2];
//  176   GENERICAPP_DEVICE_VERSION,        //  int   AppDevVer:4;
//  177   GENERICAPP_FLAGS,                 //  int   AppFlags:4;
//  178   GENERICAPP_MAX_CLUSTERS,          //  byte  AppNumInClusters;
//  179   (cId_t *)GenericApp_ClusterList,  //  byte *pAppInClusterList;
//  180   GENERICAPP_MAX_CLUSTERS,          //  byte  AppNumInClusters;
//  181   (cId_t *)GenericApp_ClusterList   //  byte *pAppInClusterList;
//  182 };
//  183 
//  184 // This is the Endpoint/Interface description.  It is defined here, but
//  185 // filled-in in GenericApp_Init().  Another way to go would be to fill
//  186 // in the structure here and make it a "const" (in code space).  The
//  187 // way it's defined in this sample app it is define in RAM.

        RSEG XDATA_Z:XDATA:NOROOT(0)
        DATA8
//  188 endPointDesc_t GenericApp_epDesc;
GenericApp_epDesc:
        DS 6
        REQUIRE __INIT_XDATA_Z
//  189 
//  190 /*********************************************************************
//  191  * EXTERNAL VARIABLES
//  192  */
//  193 
//  194 /*********************************************************************
//  195  * EXTERNAL FUNCTIONS
//  196  */
//  197 
//  198   extern void uartInit(void);
//  199   extern void uartSend(char);
//  200 
//  201 
//  202 /*********************************************************************
//  203  * LOCAL VARIABLES
//  204  */

        RSEG XDATA_Z:XDATA:NOROOT(0)
        DATA8
//  205 byte GenericApp_TaskID;   // Task ID for internal task/event processing
GenericApp_TaskID:
        DS 1
        REQUIRE __INIT_XDATA_Z
//  206                           // This variable will be received when
//  207                           // GenericApp_Init() is called.
//  208 

        RSEG XDATA_Z:XDATA:NOROOT(0)
        DATA8
//  209 devStates_t GenericApp_NwkState;
GenericApp_NwkState:
        DS 1
        REQUIRE __INIT_XDATA_Z
//  210 

        RSEG XDATA_Z:XDATA:NOROOT(0)
        DATA8
//  211 byte GenericApp_TransID;  // This is the unique message ID (counter)
GenericApp_TransID:
        DS 1
        REQUIRE __INIT_XDATA_Z
//  212 

        RSEG XDATA_Z:XDATA:NOROOT(0)
        DATA8
//  213 afAddrType_t GenericApp_DstAddr;
GenericApp_DstAddr:
        DS 12
        REQUIRE __INIT_XDATA_Z

        RSEG XDATA_Z:XDATA:NOROOT(0)
        DATA8
//  214 afAddrType_t GenericApp_DstAddr1;
GenericApp_DstAddr1:
        DS 12
        REQUIRE __INIT_XDATA_Z

        RSEG XDATA_Z:XDATA:NOROOT(0)
        DATA8
//  215 afAddrType_t GenericApp_DstAddr2;
GenericApp_DstAddr2:
        DS 12
        REQUIRE __INIT_XDATA_Z
//  216 // Number of recieved messages

        RSEG XDATA_Z:XDATA:NOROOT(0)
        DATA16
//  217 static uint16 rxMsgCount;
rxMsgCount:
        DS 2
        REQUIRE __INIT_XDATA_Z
//  218 
//  219 // Time interval between sending messages

        RSEG XDATA_I:XDATA:NOROOT(0)
//  220 static uint32 txMsgDelay = GENERICAPP_SEND_MSG_TIMEOUT;
txMsgDelay:
        DATA32
        DS 4
        REQUIRE `?<Initializer for txMsgDelay>`
        REQUIRE __INIT_XDATA_I
//  221 
//  222 /*********************************************************************
//  223  * LOCAL FUNCTIONS
//  224  */
//  225 static void GenericApp_ProcessZDOMsgs( zdoIncomingMsg_t *inMsg );
//  226 static void GenericApp_HandleKeys( byte shift, byte keys );
//  227 static void GenericApp_MessageMSGCB( afIncomingMSGPacket_t *pckt );
//  228 
//  229 static void GenericApp_EndPointList(uint16);
//  230 
//  231 static void GenericApp_SendTheMessage( void );
//  232  
//  233 void MagneticSwitch_SendTheMessage( void );
//  234 void MotionSensor_SendTheMessage( void );
//  235 
//  236 
//  237 
//  238 
//  239 #if defined( IAR_ARMCM3_LM )
//  240 static void GenericApp_ProcessRtosMessage( void );
//  241 #endif
//  242 
//  243 /*********************************************************************
//  244  * NETWORK LAYER CALLBACKS
//  245  */
//  246 
//  247 /*********************************************************************
//  248  * PUBLIC FUNCTIONS
//  249  */
//  250 
//  251 /*********************************************************************
//  252  * @fn      GenericApp_Init
//  253  *
//  254  * @brief   Initialization function for the Generic App Task.
//  255  *          This is called during initialization and should contain
//  256  *          any application specific initialization (ie. hardware
//  257  *          initialization/setup, table initialization, power up
//  258  *          notificaiton ... ).
//  259  *
//  260  * @param   task_id - the ID assigned by OSAL.  This ID should be
//  261  *                    used to send messages and set timers.
//  262  *
//  263  * @return  none
//  264  */

        RSEG BANKED_CODE:HUGECODE:NOROOT(0)
//  265 void GenericApp_Init( uint8 task_id )
GenericApp_Init:
          CFI Block cfiBlock0 Using cfiCommon0
          CFI Function GenericApp_Init
        CODE
//  266 {
        FUNCALL GenericApp_Init, afRegister
        LOCFRAME ISTACK, 0, STACK
        LOCFRAME PSTACK, 0, STACK
        LOCFRAME XSTACK, 9, STACK
        LOCFRAME IOVERLAY, 0, STATIC
        LOCFRAME DOVERLAY, 0, STATIC
        ARGFRAME ISTACK, 0, STACK
        ARGFRAME PSTACK, 0, STACK
        ARGFRAME XSTACK, 9, STACK
        ARGFRAME IOVERLAY, 0, STATIC
        ARGFRAME DOVERLAY, 0, STATIC
        FUNCALL GenericApp_Init, RegisterForKeys
        LOCFRAME ISTACK, 0, STACK
        LOCFRAME PSTACK, 0, STACK
        LOCFRAME XSTACK, 9, STACK
        LOCFRAME IOVERLAY, 0, STATIC
        LOCFRAME DOVERLAY, 0, STATIC
        ARGFRAME ISTACK, 0, STACK
        ARGFRAME PSTACK, 0, STACK
        ARGFRAME XSTACK, 9, STACK
        ARGFRAME IOVERLAY, 0, STATIC
        ARGFRAME DOVERLAY, 0, STATIC
        FUNCALL GenericApp_Init, HalLcdWriteString
        LOCFRAME ISTACK, 0, STACK
        LOCFRAME PSTACK, 0, STACK
        LOCFRAME XSTACK, 9, STACK
        LOCFRAME IOVERLAY, 0, STATIC
        LOCFRAME DOVERLAY, 0, STATIC
        ARGFRAME ISTACK, 0, STACK
        ARGFRAME PSTACK, 0, STACK
        ARGFRAME XSTACK, 9, STACK
        ARGFRAME IOVERLAY, 0, STATIC
        ARGFRAME DOVERLAY, 0, STATIC
        FUNCALL GenericApp_Init, ZDO_RegisterForZDOMsg
        LOCFRAME ISTACK, 0, STACK
        LOCFRAME PSTACK, 0, STACK
        LOCFRAME XSTACK, 9, STACK
        LOCFRAME IOVERLAY, 0, STATIC
        LOCFRAME DOVERLAY, 0, STATIC
        ARGFRAME ISTACK, 0, STACK
        ARGFRAME PSTACK, 0, STACK
        ARGFRAME XSTACK, 9, STACK
        ARGFRAME IOVERLAY, 0, STATIC
        ARGFRAME DOVERLAY, 0, STATIC
        FUNCALL GenericApp_Init, ZDO_RegisterForZDOMsg
        LOCFRAME ISTACK, 0, STACK
        LOCFRAME PSTACK, 0, STACK
        LOCFRAME XSTACK, 9, STACK
        LOCFRAME IOVERLAY, 0, STATIC
        LOCFRAME DOVERLAY, 0, STATIC
        ARGFRAME ISTACK, 0, STACK
        ARGFRAME PSTACK, 0, STACK
        ARGFRAME XSTACK, 9, STACK
        ARGFRAME IOVERLAY, 0, STATIC
        ARGFRAME DOVERLAY, 0, STATIC
        MOV     A,#-0x9
        LCALL   ?BANKED_ENTER_XDATA
          CFI DPH0 load(1, XDATA, add(CFA_XSP16, literal(-1)))
          CFI DPL0 load(1, XDATA, add(CFA_XSP16, literal(-2)))
          CFI ?BRET_EXT load(1, XDATA, add(CFA_XSP16, literal(-3)))
          CFI ?RET_HIGH load(1, XDATA, add(CFA_XSP16, literal(-4)))
          CFI ?RET_LOW load(1, XDATA, add(CFA_XSP16, literal(-5)))
          CFI R7 load(1, XDATA, add(CFA_XSP16, literal(-6)))
          CFI V0 load(1, XDATA, add(CFA_XSP16, literal(-7)))
          CFI VB load(1, XDATA, add(CFA_XSP16, literal(-8)))
          CFI R6 load(1, XDATA, add(CFA_XSP16, literal(-9)))
          CFI CFA_SP SP+0
          CFI CFA_XSP16 add(XSP16, 9)
        ; Saved register size: 9
        ; Auto size: 0
        MOV     A,R1
//  267   GenericApp_TaskID = task_id;
        MOV     DPTR,#GenericApp_TaskID
        MOVX    @DPTR,A
//  268   GenericApp_NwkState = DEV_INIT;
        MOV     DPTR,#GenericApp_NwkState
        MOV     A,#0x1
        MOVX    @DPTR,A
//  269   GenericApp_TransID = 0;
        MOV     DPTR,#GenericApp_TransID
        CLR     A
        MOVX    @DPTR,A
//  270   
//  271   // Device hardware initialization can be added here or in main() (Zmain.c).
//  272   // If the hardware is application specific - add it here.
//  273   // If the hardware is other parts of the device add it in main().
//  274 
//  275   GenericApp_DstAddr.addrMode = (afAddrMode_t)Addr16Bit;
        MOV     DPTR,#GenericApp_DstAddr + 8
        MOV     A,#0x2
        MOVX    @DPTR,A
//  276   GenericApp_DstAddr.endPoint = GENERICAPP_ENDPOINT;
        INC     DPTR
        MOV     A,#0xa
        MOVX    @DPTR,A
//  277   //This is address of Coordinator
//  278   GenericApp_DstAddr.addr.shortAddr = 0x0000;                                   
        MOV     DPTR,#GenericApp_DstAddr
        CLR     A
        MOVX    @DPTR,A
        INC     DPTR
        MOVX    @DPTR,A
//  279 
//  280   // Fill out the endpoint description.
//  281   GenericApp_epDesc.endPoint = GENERICAPP_ENDPOINT;
        MOV     DPTR,#GenericApp_epDesc
        MOV     A,#0xa
        MOVX    @DPTR,A
//  282   GenericApp_epDesc.task_id = &GenericApp_TaskID;
        INC     DPTR
        MOV     A,#GenericApp_TaskID & 0xff
        MOVX    @DPTR,A
        INC     DPTR
        MOV     A,#(GenericApp_TaskID >> 8) & 0xff
        MOVX    @DPTR,A
//  283   GenericApp_epDesc.simpleDesc
//  284             = (SimpleDescriptionFormat_t *)&GenericApp_SimpleDesc;
        INC     DPTR
        MOV     A,#GenericApp_SimpleDesc & 0xff
        MOVX    @DPTR,A
        INC     DPTR
        MOV     A,#(GenericApp_SimpleDesc >> 8) & 0xff
        MOVX    @DPTR,A
//  285   GenericApp_epDesc.latencyReq = noLatencyReqs;
        INC     DPTR
        CLR     A
        MOVX    @DPTR,A
//  286 
//  287   // Register the endpoint description with the AF
//  288   afRegister( &GenericApp_epDesc );
        ; Setup parameters for call to function afRegister
        MOV     R2,#GenericApp_epDesc & 0xff
        MOV     R3,#(GenericApp_epDesc >> 8) & 0xff
        LCALL   `??afRegister::?relay`; Banked call to: afRegister
//  289 
//  290   // Register for all key events - This app will handle all key events
//  291   RegisterForKeys( GenericApp_TaskID );
        ; Setup parameters for call to function RegisterForKeys
        MOV     DPTR,#GenericApp_TaskID
        MOVX    A,@DPTR
        MOV     R1,A
        LCALL   `??RegisterForKeys::?relay`; Banked call to: RegisterForKeys
//  292 
//  293   // Update the display
//  294 #if defined ( LCD_SUPPORTED )
//  295   HalLcdWriteString( "GenericApp", HAL_LCD_LINE_1 );
        ; Setup parameters for call to function HalLcdWriteString
        MOV     R1,#0x1
        MOV     R2,#`?<Constant "GenericApp">` & 0xff
        MOV     R3,#(`?<Constant "GenericApp">` >> 8) & 0xff
        LCALL   `??HalLcdWriteString::?relay`; Banked call to: HalLcdWriteString
//  296 #endif
//  297 
//  298   ZDO_RegisterForZDOMsg( GenericApp_TaskID, End_Device_Bind_rsp );
        ; Setup parameters for call to function ZDO_RegisterForZDOMsg
        MOV     R2,#0x20
        MOV     R3,#-0x80
        MOV     DPTR,#GenericApp_TaskID
        MOVX    A,@DPTR
        MOV     R1,A
        LCALL   `??ZDO_RegisterForZDOMsg::?relay`; Banked call to: ZDO_RegisterForZDOMsg
//  299   ZDO_RegisterForZDOMsg( GenericApp_TaskID, Match_Desc_rsp );
        ; Setup parameters for call to function ZDO_RegisterForZDOMsg
        MOV     R2,#0x6
        MOV     R3,#-0x80
        MOV     DPTR,#GenericApp_TaskID
        MOVX    A,@DPTR
        MOV     R1,A
        LCALL   `??ZDO_RegisterForZDOMsg::?relay`; Banked call to: ZDO_RegisterForZDOMsg
//  300 
//  301 #if defined( IAR_ARMCM3_LM )
//  302   // Register this task with RTOS task initiator
//  303   RTOS_RegisterApp( task_id, GENERICAPP_RTOS_MSG_EVT );
//  304 #endif
//  305 }
        MOV     R7,#0x1
        LJMP    ?BANKED_LEAVE_XDATA
          CFI EndBlock cfiBlock0
//  306 /*********************************************************************
//  307  * @fn      GenericApp_EndPointList
//  308  *
//  309  * @brief   Get's short address of end device and put in the end device 
//  310             array
//  311  *
//  312  * @param   shAddr  - Short Address of connected End Device
//  313  * 
//  314  * @return  none
//  315  */
//  316 static void GenericApp_EndPointList(uint16 shAddr)
//  317 {
//  318  
//  319   if(index > MAX_NUMBER_OF_ENDDEVICES)
//  320   {
//  321     HalLcdWriteString("Max number of end devices overflow.",0);
//  322   }
//  323   else
//  324   {
//  325     shortAddressOfEndDevice[index];
//  326     index++;
//  327   }
//  328   
//  329   
//  330 }
//  331 /*********************************************************************
//  332  * @fn      GenericApp_ProcessEvent
//  333  *
//  334  * @brief   Generic Application Task event processor.  This function
//  335  *          is called to process all events for the task.  Events
//  336  *          include timers, messages and any other user defined events.
//  337  *
//  338  * @param   task_id  - The OSAL assigned task ID.
//  339  * @param   events - events to process.  This is a bit map and can
//  340  *                   contain more than one event.
//  341  *
//  342  * @return  none
//  343  */

        RSEG BANKED_CODE:HUGECODE:NOROOT(0)
//  344 uint16 GenericApp_ProcessEvent( uint8 task_id, uint16 events )
GenericApp_ProcessEvent:
          CFI Block cfiBlock1 Using cfiCommon0
          CFI Function GenericApp_ProcessEvent
        CODE
//  345 {
        FUNCALL GenericApp_ProcessEvent, osal_msg_receive
        LOCFRAME ISTACK, 0, STACK
        LOCFRAME PSTACK, 0, STACK
        LOCFRAME XSTACK, 23, STACK
        LOCFRAME IOVERLAY, 0, STATIC
        LOCFRAME DOVERLAY, 0, STATIC
        ARGFRAME ISTACK, 0, STACK
        ARGFRAME PSTACK, 0, STACK
        ARGFRAME XSTACK, 23, STACK
        ARGFRAME IOVERLAY, 0, STATIC
        ARGFRAME DOVERLAY, 0, STATIC
        FUNCALL GenericApp_ProcessEvent, osal_set_event
        LOCFRAME ISTACK, 0, STACK
        LOCFRAME PSTACK, 0, STACK
        LOCFRAME XSTACK, 23, STACK
        LOCFRAME IOVERLAY, 0, STATIC
        LOCFRAME DOVERLAY, 0, STATIC
        ARGFRAME ISTACK, 0, STACK
        ARGFRAME PSTACK, 0, STACK
        ARGFRAME XSTACK, 23, STACK
        ARGFRAME IOVERLAY, 0, STATIC
        ARGFRAME DOVERLAY, 0, STATIC
        FUNCALL GenericApp_ProcessEvent, osal_msg_deallocate
        LOCFRAME ISTACK, 0, STACK
        LOCFRAME PSTACK, 0, STACK
        LOCFRAME XSTACK, 23, STACK
        LOCFRAME IOVERLAY, 0, STATIC
        LOCFRAME DOVERLAY, 0, STATIC
        ARGFRAME ISTACK, 0, STACK
        ARGFRAME PSTACK, 0, STACK
        ARGFRAME XSTACK, 23, STACK
        ARGFRAME IOVERLAY, 0, STATIC
        ARGFRAME DOVERLAY, 0, STATIC
        FUNCALL GenericApp_ProcessEvent, osal_msg_receive
        LOCFRAME ISTACK, 0, STACK
        LOCFRAME PSTACK, 0, STACK
        LOCFRAME XSTACK, 23, STACK
        LOCFRAME IOVERLAY, 0, STATIC
        LOCFRAME DOVERLAY, 0, STATIC
        ARGFRAME ISTACK, 0, STACK
        ARGFRAME PSTACK, 0, STACK
        ARGFRAME XSTACK, 23, STACK
        ARGFRAME IOVERLAY, 0, STATIC
        ARGFRAME DOVERLAY, 0, STATIC
        FUNCALL GenericApp_ProcessEvent, ZDO_ParseEPListRsp
        LOCFRAME ISTACK, 0, STACK
        LOCFRAME PSTACK, 0, STACK
        LOCFRAME XSTACK, 23, STACK
        LOCFRAME IOVERLAY, 0, STATIC
        LOCFRAME DOVERLAY, 0, STATIC
        ARGFRAME ISTACK, 0, STACK
        ARGFRAME PSTACK, 0, STACK
        ARGFRAME XSTACK, 23, STACK
        ARGFRAME IOVERLAY, 0, STATIC
        ARGFRAME DOVERLAY, 0, STATIC
        FUNCALL GenericApp_ProcessEvent, HalLedSet
        LOCFRAME ISTACK, 0, STACK
        LOCFRAME PSTACK, 0, STACK
        LOCFRAME XSTACK, 23, STACK
        LOCFRAME IOVERLAY, 0, STATIC
        LOCFRAME DOVERLAY, 0, STATIC
        ARGFRAME ISTACK, 0, STACK
        ARGFRAME PSTACK, 0, STACK
        ARGFRAME XSTACK, 23, STACK
        ARGFRAME IOVERLAY, 0, STATIC
        ARGFRAME DOVERLAY, 0, STATIC
        FUNCALL GenericApp_ProcessEvent, osal_mem_free
        LOCFRAME ISTACK, 0, STACK
        LOCFRAME PSTACK, 0, STACK
        LOCFRAME XSTACK, 23, STACK
        LOCFRAME IOVERLAY, 0, STATIC
        LOCFRAME DOVERLAY, 0, STATIC
        ARGFRAME ISTACK, 0, STACK
        ARGFRAME PSTACK, 0, STACK
        ARGFRAME XSTACK, 23, STACK
        ARGFRAME IOVERLAY, 0, STATIC
        ARGFRAME DOVERLAY, 0, STATIC
        FUNCALL GenericApp_ProcessEvent, HalLedSet
        LOCFRAME ISTACK, 0, STACK
        LOCFRAME PSTACK, 0, STACK
        LOCFRAME XSTACK, 23, STACK
        LOCFRAME IOVERLAY, 0, STATIC
        LOCFRAME DOVERLAY, 0, STATIC
        ARGFRAME ISTACK, 0, STACK
        ARGFRAME PSTACK, 0, STACK
        ARGFRAME XSTACK, 23, STACK
        ARGFRAME IOVERLAY, 0, STATIC
        ARGFRAME DOVERLAY, 0, STATIC
        FUNCALL GenericApp_ProcessEvent, HalLedSet
        LOCFRAME ISTACK, 0, STACK
        LOCFRAME PSTACK, 0, STACK
        LOCFRAME XSTACK, 23, STACK
        LOCFRAME IOVERLAY, 0, STATIC
        LOCFRAME DOVERLAY, 0, STATIC
        ARGFRAME ISTACK, 0, STACK
        ARGFRAME PSTACK, 0, STACK
        ARGFRAME XSTACK, 23, STACK
        ARGFRAME IOVERLAY, 0, STATIC
        ARGFRAME DOVERLAY, 0, STATIC
        FUNCALL GenericApp_ProcessEvent, HalLcdWriteString
        LOCFRAME ISTACK, 0, STACK
        LOCFRAME PSTACK, 0, STACK
        LOCFRAME XSTACK, 23, STACK
        LOCFRAME IOVERLAY, 0, STATIC
        LOCFRAME DOVERLAY, 0, STATIC
        ARGFRAME ISTACK, 0, STACK
        ARGFRAME PSTACK, 0, STACK
        ARGFRAME XSTACK, 23, STACK
        ARGFRAME IOVERLAY, 0, STATIC
        ARGFRAME DOVERLAY, 0, STATIC
        FUNCALL GenericApp_ProcessEvent, HalLcdWriteString
        LOCFRAME ISTACK, 0, STACK
        LOCFRAME PSTACK, 0, STACK
        LOCFRAME XSTACK, 23, STACK
        LOCFRAME IOVERLAY, 0, STATIC
        LOCFRAME DOVERLAY, 0, STATIC
        ARGFRAME ISTACK, 0, STACK
        ARGFRAME PSTACK, 0, STACK
        ARGFRAME XSTACK, 23, STACK
        ARGFRAME IOVERLAY, 0, STATIC
        ARGFRAME DOVERLAY, 0, STATIC
        FUNCALL GenericApp_ProcessEvent, uartSend
        LOCFRAME ISTACK, 0, STACK
        LOCFRAME PSTACK, 0, STACK
        LOCFRAME XSTACK, 23, STACK
        LOCFRAME IOVERLAY, 0, STATIC
        LOCFRAME DOVERLAY, 0, STATIC
        ARGFRAME ISTACK, 0, STACK
        ARGFRAME PSTACK, 0, STACK
        ARGFRAME XSTACK, 23, STACK
        ARGFRAME IOVERLAY, 0, STATIC
        ARGFRAME DOVERLAY, 0, STATIC
        FUNCALL GenericApp_ProcessEvent, HalLcdWriteString
        LOCFRAME ISTACK, 0, STACK
        LOCFRAME PSTACK, 0, STACK
        LOCFRAME XSTACK, 23, STACK
        LOCFRAME IOVERLAY, 0, STATIC
        LOCFRAME DOVERLAY, 0, STATIC
        ARGFRAME ISTACK, 0, STACK
        ARGFRAME PSTACK, 0, STACK
        ARGFRAME XSTACK, 23, STACK
        ARGFRAME IOVERLAY, 0, STATIC
        ARGFRAME DOVERLAY, 0, STATIC
        FUNCALL GenericApp_ProcessEvent, HalLcdWriteString
        LOCFRAME ISTACK, 0, STACK
        LOCFRAME PSTACK, 0, STACK
        LOCFRAME XSTACK, 23, STACK
        LOCFRAME IOVERLAY, 0, STATIC
        LOCFRAME DOVERLAY, 0, STATIC
        ARGFRAME ISTACK, 0, STACK
        ARGFRAME PSTACK, 0, STACK
        ARGFRAME XSTACK, 23, STACK
        ARGFRAME IOVERLAY, 0, STATIC
        ARGFRAME DOVERLAY, 0, STATIC
        FUNCALL GenericApp_ProcessEvent, HalLcdWriteString
        LOCFRAME ISTACK, 0, STACK
        LOCFRAME PSTACK, 0, STACK
        LOCFRAME XSTACK, 23, STACK
        LOCFRAME IOVERLAY, 0, STATIC
        LOCFRAME DOVERLAY, 0, STATIC
        ARGFRAME ISTACK, 0, STACK
        ARGFRAME PSTACK, 0, STACK
        ARGFRAME XSTACK, 23, STACK
        ARGFRAME IOVERLAY, 0, STATIC
        ARGFRAME DOVERLAY, 0, STATIC
        FUNCALL GenericApp_ProcessEvent, osal_start_timerEx
        LOCFRAME ISTACK, 0, STACK
        LOCFRAME PSTACK, 0, STACK
        LOCFRAME XSTACK, 27, STACK
        LOCFRAME IOVERLAY, 0, STATIC
        LOCFRAME DOVERLAY, 0, STATIC
        ARGFRAME ISTACK, 0, STACK
        ARGFRAME PSTACK, 0, STACK
        ARGFRAME XSTACK, 27, STACK
        ARGFRAME IOVERLAY, 0, STATIC
        ARGFRAME DOVERLAY, 0, STATIC
        FUNCALL GenericApp_ProcessEvent, NLME_GetShortAddr
        LOCFRAME ISTACK, 0, STACK
        LOCFRAME PSTACK, 0, STACK
        LOCFRAME XSTACK, 23, STACK
        LOCFRAME IOVERLAY, 0, STATIC
        LOCFRAME DOVERLAY, 0, STATIC
        ARGFRAME ISTACK, 0, STACK
        ARGFRAME PSTACK, 0, STACK
        ARGFRAME XSTACK, 23, STACK
        ARGFRAME IOVERLAY, 0, STATIC
        ARGFRAME DOVERLAY, 0, STATIC
        FUNCALL GenericApp_ProcessEvent, ZDP_EndDeviceBindReq
        LOCFRAME ISTACK, 0, STACK
        LOCFRAME PSTACK, 0, STACK
        LOCFRAME XSTACK, 32, STACK
        LOCFRAME IOVERLAY, 0, STATIC
        LOCFRAME DOVERLAY, 0, STATIC
        ARGFRAME ISTACK, 0, STACK
        ARGFRAME PSTACK, 0, STACK
        ARGFRAME XSTACK, 32, STACK
        ARGFRAME IOVERLAY, 0, STATIC
        ARGFRAME DOVERLAY, 0, STATIC
        FUNCALL GenericApp_ProcessEvent, osal_set_event
        LOCFRAME ISTACK, 0, STACK
        LOCFRAME PSTACK, 0, STACK
        LOCFRAME XSTACK, 23, STACK
        LOCFRAME IOVERLAY, 0, STATIC
        LOCFRAME DOVERLAY, 0, STATIC
        ARGFRAME ISTACK, 0, STACK
        ARGFRAME PSTACK, 0, STACK
        ARGFRAME XSTACK, 23, STACK
        ARGFRAME IOVERLAY, 0, STATIC
        ARGFRAME DOVERLAY, 0, STATIC
        FUNCALL GenericApp_ProcessEvent, GenericApp_SendTheMessage
        LOCFRAME ISTACK, 0, STACK
        LOCFRAME PSTACK, 0, STACK
        LOCFRAME XSTACK, 23, STACK
        LOCFRAME IOVERLAY, 0, STATIC
        LOCFRAME DOVERLAY, 0, STATIC
        ARGFRAME ISTACK, 0, STACK
        ARGFRAME PSTACK, 0, STACK
        ARGFRAME XSTACK, 23, STACK
        ARGFRAME IOVERLAY, 0, STATIC
        ARGFRAME DOVERLAY, 0, STATIC
        FUNCALL GenericApp_ProcessEvent, osal_start_timerEx
        LOCFRAME ISTACK, 0, STACK
        LOCFRAME PSTACK, 0, STACK
        LOCFRAME XSTACK, 27, STACK
        LOCFRAME IOVERLAY, 0, STATIC
        LOCFRAME DOVERLAY, 0, STATIC
        ARGFRAME ISTACK, 0, STACK
        ARGFRAME PSTACK, 0, STACK
        ARGFRAME XSTACK, 27, STACK
        ARGFRAME IOVERLAY, 0, STATIC
        ARGFRAME DOVERLAY, 0, STATIC
        REQUIRE ?V0
        REQUIRE ?V1
        REQUIRE ?V2
        REQUIRE ?V3
        REQUIRE ?V4
        REQUIRE ?V5
        MOV     A,#-0xe
        LCALL   ?BANKED_ENTER_XDATA
          CFI DPH0 load(1, XDATA, add(CFA_XSP16, literal(-1)))
          CFI DPL0 load(1, XDATA, add(CFA_XSP16, literal(-2)))
          CFI ?BRET_EXT load(1, XDATA, add(CFA_XSP16, literal(-3)))
          CFI ?RET_HIGH load(1, XDATA, add(CFA_XSP16, literal(-4)))
          CFI ?RET_LOW load(1, XDATA, add(CFA_XSP16, literal(-5)))
          CFI R7 load(1, XDATA, add(CFA_XSP16, literal(-6)))
          CFI V5 load(1, XDATA, add(CFA_XSP16, literal(-7)))
          CFI V4 load(1, XDATA, add(CFA_XSP16, literal(-8)))
          CFI V3 load(1, XDATA, add(CFA_XSP16, literal(-9)))
          CFI V2 load(1, XDATA, add(CFA_XSP16, literal(-10)))
          CFI V1 load(1, XDATA, add(CFA_XSP16, literal(-11)))
          CFI V0 load(1, XDATA, add(CFA_XSP16, literal(-12)))
          CFI VB load(1, XDATA, add(CFA_XSP16, literal(-13)))
          CFI R6 load(1, XDATA, add(CFA_XSP16, literal(-14)))
          CFI CFA_SP SP+0
          CFI CFA_XSP16 add(XSP16, 14)
        ; Saved register size: 14
        ; Auto size: 9
        MOV     A,#-0x9
        LCALL   ?ALLOC_XSTACK8
          CFI CFA_XSP16 add(XSP16, 23)
        MOV     ?V0,R2
        MOV     ?V1,R3
//  346   afIncomingMSGPacket_t *MSGpkt;
//  347   afDataConfirm_t *afDataConfirm;
//  348   zAddrType_t dstAddr;
//  349 
//  350     char shAddr[5];
//  351     shAddr[4] = '\0';
//  352     
//  353     uint8 i;
//  354     uint16 shortAdrress;
//  355   // Data Confirmation message fields
//  356   byte sentEP;
//  357   ZStatus_t sentStatus;
//  358   byte sentTransID;       // This should match the value sent
//  359   (void)task_id;  // Intentionally unreferenced parameter
//  360 
//  361   if ( events & SYS_EVENT_MSG )
        MOV     A,R3
        ANL     A,#0x80
        JNZ     $+5
        LJMP    ??GenericApp_ProcessEvent_0 & 0xFFFF
//  362   {
//  363     MSGpkt = (afIncomingMSGPacket_t *)osal_msg_receive( GenericApp_TaskID );
        ; Setup parameters for call to function osal_msg_receive
        SJMP    ??GenericApp_ProcessEvent_1
//  364     
//  365     while ( MSGpkt )
//  366     {
//  367       switch ( MSGpkt->hdr.event )
//  368       {
//  369         case ZDO_CB_MSG:
//  370           
//  371           GenericApp_ProcessZDOMsgs( (zdoIncomingMsg_t *)MSGpkt );
//  372           
//  373           break;
//  374 
//  375         case KEY_CHANGE:
//  376   
//  377           // GenericApp_HandleKeys( ((keyChange_t *)MSGpkt)->state, ((keyChange_t *)MSGpkt)->keys );
//  378           break;
//  379 
//  380         case AF_DATA_CONFIRM_CMD:
//  381           // This message is received as a confirmation of a data packet sent.
//  382           // The status is of ZStatus_t type [defined in ZComDef.h]
//  383           // The message fields are defined in AF.h
//  384          
//  385           afDataConfirm = (afDataConfirm_t *)MSGpkt;
//  386 
//  387           sentEP = afDataConfirm->endpoint;
//  388           (void)sentEP;  // This info not used now
//  389           sentTransID = afDataConfirm->transID;
//  390           (void)sentTransID;  // This info not used now
//  391 
//  392           sentStatus = afDataConfirm->hdr.status;
//  393           // Action taken when confirmation is received.
//  394           if ( sentStatus != ZSuccess )
//  395           {
//  396             // The data wasn't delivered -- Do something
//  397           }
//  398           break;
//  399 
//  400         case AF_INCOMING_MSG_CMD:
//  401           
//  402          //Receive "The" Message
//  403          GenericApp_MessageMSGCB( MSGpkt );
//  404          
//  405 
//  406           break;
//  407 
//  408         case ZDO_STATE_CHANGE:
//  409            
//  410         
//  411           
//  412           GenericApp_NwkState = (devStates_t)(MSGpkt->hdr.status);
//  413           if ( (GenericApp_NwkState == DEV_ZB_COORD) ||
//  414                (GenericApp_NwkState == DEV_ROUTER) ||
//  415                (GenericApp_NwkState == DEV_END_DEVICE) )
//  416           {
//  417             
//  418            
//  419             // Start sending "the" message in a regular interval.
//  420             osal_start_timerEx( GenericApp_TaskID,
//  421                                 GENERICAPP_SEND_MSG_EVT,
//  422                                 txMsgDelay );
//  423             
//  424 
//  425           }
//  426                       
//  427           break;
//  428 
//  429         default:
//  430            
//  431           
//  432             osal_set_event(GenericApp_TaskID,GENERICAPP_SEND_MSG_EVT);
??GenericApp_ProcessEvent_2:
        ; Setup parameters for call to function osal_set_event
        MOV     R2,#0x1
        MOV     R3,#0x0
        MOV     DPTR,#GenericApp_TaskID
        MOVX    A,@DPTR
        MOV     R1,A
        LCALL   `??osal_set_event::?relay`; Banked call to: osal_set_event
//  433            break;
//  434       }
//  435 
//  436       // Release the memory
//  437       osal_msg_deallocate( (uint8 *)MSGpkt );
??GenericApp_ProcessEvent_3:
        ; Setup parameters for call to function osal_msg_deallocate
        MOV     A,R6
        MOV     R2,A
        MOV     A,R7
        MOV     R3,A
        LCALL   `??osal_msg_deallocate::?relay`; Banked call to: osal_msg_deallocate
//  438 
//  439       // Next
//  440       MSGpkt = (afIncomingMSGPacket_t *)osal_msg_receive( GenericApp_TaskID );
        ; Setup parameters for call to function osal_msg_receive
??GenericApp_ProcessEvent_1:
        MOV     DPTR,#GenericApp_TaskID
        MOVX    A,@DPTR
        MOV     R1,A
        LCALL   `??osal_msg_receive::?relay`; Banked call to: osal_msg_receive
        MOV     ?V2,R2
        MOV     ?V3,R3
        MOV     R6,?V2
        MOV     R7,?V3
        MOV     A,R6
        ORL     A,R7
        JNZ     $+5
        LJMP    ??GenericApp_ProcessEvent_4 & 0xFFFF
        MOV     DPL,R6
        MOV     DPH,R7
        MOVX    A,@DPTR
        ADD     A,#-0x1a
        JNZ     $+5
        LJMP    ??GenericApp_ProcessEvent_5 & 0xFFFF
        ADD     A,#0x5a
        JZ      ??GenericApp_ProcessEvent_3
        ADD     A,#-0x11
        JNZ     $+5
        LJMP    ??GenericApp_ProcessEvent_6 & 0xFFFF
        ADD     A,#-0x2
        JZ      ??GenericApp_ProcessEvent_7
        ADD     A,#-0x2a
        JZ      ??GenericApp_ProcessEvent_3
        SJMP    ??GenericApp_ProcessEvent_2
??GenericApp_ProcessEvent_7:
        MOV     A,R6
        ADD     A,#0xc
        MOV     DPL,A
        CLR     A
        ADDC    A,R7
        MOV     DPH,A
        MOVX    A,@DPTR
        MOV     ?V2,A
        INC     DPTR
        MOVX    A,@DPTR
        MOV     ?V3,A
        MOV     R0,#?V2
        LCALL   ?US_SWITCH_SPARSE
`?<Jumptable for GenericApp_ProcessEvent>_0`:
        DATA
        DATA16
        DATA
        DATA16
        DATA
        DATA16
        DW        0
        DATA
        DATA16
        DATA
        DATA16
        DATA
        DATA16
        DW        2
        DATA
        DATA16
        DATA
        DATA16
        DATA
        DATA16
        DW        32774
        DATA
        DATA16
        DATA
        DATA16
        DATA
        DATA16
        DW        ??GenericApp_ProcessEvent_8
        DATA
        DATA16
        DATA
        DATA16
        DATA
        DATA16
        DW        32800
        DATA
        DATA16
        DATA
        DATA16
        DATA
        DATA16
        DW        ??GenericApp_ProcessEvent_9
        DATA
        DATA16
        DATA
        DATA16
        DW        ??GenericApp_ProcessEvent_3
        CODE
??GenericApp_ProcessEvent_8:
        ; Setup parameters for call to function ZDO_ParseEPListRsp
        MOV     A,R6
        MOV     R2,A
        MOV     A,R7
        MOV     R3,A
        LCALL   `??ZDO_ParseEPListRsp::?relay`; Banked call to: ZDO_ParseEPListRsp
        MOV     ?V2,R2
        MOV     ?V3,R3
        MOV     A,R2
        ORL     A,?V3
        JZ      ??GenericApp_ProcessEvent_3
        MOV     DPL,R2
        MOV     DPH,R3
        MOVX    A,@DPTR
        JNZ     ??GenericApp_ProcessEvent_10
        INC     DPTR
        INC     DPTR
        INC     DPTR
        MOVX    A,@DPTR
        JZ      ??GenericApp_ProcessEvent_10
        MOV     DPTR,#GenericApp_DstAddr + 8
        MOV     A,#0x2
        MOVX    @DPTR,A
        MOV     DPL,R2
        MOV     DPH,R3
        INC     DPTR
        MOVX    A,@DPTR
        MOV     R0,A
        INC     DPTR
        MOVX    A,@DPTR
        MOV     R1,A
        MOV     DPTR,#GenericApp_DstAddr
        MOV     A,R0
        MOVX    @DPTR,A
        INC     DPTR
        MOV     A,R1
        MOVX    @DPTR,A
        MOV     DPL,R2
        MOV     DPH,R3
        INC     DPTR
        INC     DPTR
        INC     DPTR
        INC     DPTR
        MOVX    A,@DPTR
        MOV     DPTR,#GenericApp_DstAddr + 9
        MOVX    @DPTR,A
        ; Setup parameters for call to function HalLedSet
        MOV     R2,#0x1
        MOV     R1,#0x8
        LCALL   `??HalLedSet::?relay`; Banked call to: HalLedSet
??GenericApp_ProcessEvent_10:
        ; Setup parameters for call to function osal_mem_free
        MOV     R2,?V2
        MOV     R3,?V3
        LCALL   `??osal_mem_free::?relay`; Banked call to: osal_mem_free
        LJMP    ??GenericApp_ProcessEvent_3 & 0xFFFF
??GenericApp_ProcessEvent_9:
        MOV     A,R6
        ADD     A,#0x13
        MOV     DPL,A
        CLR     A
        ADDC    A,R7
        MOV     DPH,A
        MOVX    A,@DPTR
        MOV     R0,A
        INC     DPTR
        MOVX    A,@DPTR
        MOV     DPH,A
        MOV     DPL,R0
        MOVX    A,@DPTR
        JNZ     ??GenericApp_ProcessEvent_11
        ; Setup parameters for call to function HalLedSet
        MOV     R2,#0x1
??GenericApp_ProcessEvent_12:
        MOV     R1,#0x8
        LCALL   `??HalLedSet::?relay`; Banked call to: HalLedSet
        LJMP    ??GenericApp_ProcessEvent_3 & 0xFFFF
??GenericApp_ProcessEvent_11:
        ; Setup parameters for call to function HalLedSet
        MOV     R2,#0x4
        SJMP    ??GenericApp_ProcessEvent_12
??GenericApp_ProcessEvent_5:
        INC     DPTR
        INC     DPTR
        INC     DPTR
        INC     DPTR
        MOVX    A,@DPTR
        XRL     A,#0x1
        JNZ     ??GenericApp_ProcessEvent_13
        INC     DPTR
        MOVX    A,@DPTR
??GenericApp_ProcessEvent_13:
        JNZ     ??GenericApp_ProcessEvent_14
        MOV     DPTR,#rxMsgCount
        MOVX    A,@DPTR
        ADD     A,#0x1
        MOVX    @DPTR,A
        INC     DPTR
        MOVX    A,@DPTR
        ADDC    A,#0x0
        MOVX    @DPTR,A
        ; Setup parameters for call to function HalLcdWriteString
        MOV     R1,#0x0
        MOV     R2,#`?<Constant "---------------------...">` & 0xff
        MOV     R3,#(`?<Constant "---------------------...">` >> 8) & 0xff
        LCALL   `??HalLcdWriteString::?relay`; Banked call to: HalLcdWriteString
        ; Setup parameters for call to function HalLcdWriteString
        MOV     R1,#0x0
        MOV     R2,#`?<Constant "Received data:">` & 0xff
        MOV     R3,#(`?<Constant "Received data:">` >> 8) & 0xff
        LCALL   `??HalLcdWriteString::?relay`; Banked call to: HalLcdWriteString
        MOV     ?V2,#0x0
        SJMP    ??GenericApp_ProcessEvent_15
??GenericApp_ProcessEvent_16:
        ; Setup parameters for call to function uartSend
        MOV     R0,?V2
        MOV     A,R6
        ADD     A,#0x22
        MOV     DPL,A
        CLR     A
        ADDC    A,R7
        MOV     DPH,A
        MOVX    A,@DPTR
        ADD     A,R0
        MOV     R2,A
        INC     DPTR
        MOVX    A,@DPTR
        ADDC    A,#0x0
        MOV     DPL,R2
        MOV     DPH,A
        MOVX    A,@DPTR
        MOV     R1,A
        LCALL   `??uartSend::?relay` ; Banked call to: uartSend
        INC     ?V2
??GenericApp_ProcessEvent_15:
        MOV     A,R6
        ADD     A,#0x20
        MOV     DPL,A
        CLR     A
        ADDC    A,R7
        MOV     DPH,A
        MOVX    A,@DPTR
        MOV     R2,A
        INC     DPTR
        MOVX    A,@DPTR
        MOV     R3,A
        CLR     C
        MOV     A,?V2
        SUBB    A,R2
        CLR     A
        SUBB    A,R3
        JC      ??GenericApp_ProcessEvent_16
        ; Setup parameters for call to function HalLcdWriteString
        MOV     R1,#0x0
        MOV     R2,#`?<Constant "">` & 0xff
        MOV     R3,#(`?<Constant "">` >> 8) & 0xff
        LCALL   `??HalLcdWriteString::?relay`; Banked call to: HalLcdWriteString
        ; Setup parameters for call to function HalLcdWriteString
        MOV     R1,#0x0
        MOV     R2,#`?<Constant "---------------------...">` & 0xff
        MOV     R3,#(`?<Constant "---------------------...">` >> 8) & 0xff
??GenericApp_ProcessEvent_17:
        LCALL   `??HalLcdWriteString::?relay`; Banked call to: HalLcdWriteString
        LJMP    ??GenericApp_ProcessEvent_3 & 0xFFFF
??GenericApp_ProcessEvent_14:
        ; Setup parameters for call to function HalLcdWriteString
        MOV     R1,#0x0
        MOV     R2,#`?<Constant "Podatak nije primljen.">` & 0xff
        MOV     R3,#(`?<Constant "Podatak nije primljen.">` >> 8) & 0xff
        SJMP    ??GenericApp_ProcessEvent_17
??GenericApp_ProcessEvent_6:
        INC     DPTR
        MOVX    A,@DPTR
        MOV     DPTR,#GenericApp_NwkState
        MOVX    @DPTR,A
        XRL     A,#0x9
        JZ      ??GenericApp_ProcessEvent_18
        MOVX    A,@DPTR
        XRL     A,#0x7
        JZ      ??GenericApp_ProcessEvent_18
        MOVX    A,@DPTR
        XRL     A,#0x6
        JZ      $+5
        LJMP    ??GenericApp_ProcessEvent_3 & 0xFFFF
??GenericApp_ProcessEvent_18:
        ; Setup parameters for call to function osal_start_timerEx
        MOV     DPTR,#txMsgDelay
        LCALL   ?PUSH_XSTACK8_X_FOUR
          CFI CFA_XSP16 add(XSP16, 27)
        MOV     R2,#0x1
        MOV     R3,#0x0
        MOV     DPTR,#GenericApp_TaskID
        MOVX    A,@DPTR
        MOV     R1,A
        LCALL   `??osal_start_timerEx::?relay`; Banked call to: osal_start_timerEx
        MOV     A,#0x4
        LCALL   ?DEALLOC_XSTACK8
          CFI CFA_XSP16 add(XSP16, 23)
        LJMP    ??GenericApp_ProcessEvent_3 & 0xFFFF
//  441         
//  442     }
//  443 
//  444     // return unprocessed events
//  445     return (events ^ SYS_EVENT_MSG);
??GenericApp_ProcessEvent_4:
        MOV     R2,?V0
        MOV     A,?V1
        XRL     A,#0x80
        MOV     R3,A
        LJMP    ??GenericApp_ProcessEvent_19 & 0xFFFF
//  446   }
//  447 
//  448   // Send a message out - This event is generated by a timer
//  449   //  (setup in GenericApp_Init()).
//  450   if ( events & GENERICAPP_SEND_MSG_EVT )
??GenericApp_ProcessEvent_0:
        MOV     A,R2
        MOV     C,0xE0 /* A   */.0
        JC      $+5
        LJMP    ??GenericApp_ProcessEvent_20 & 0xFFFF
//  451   {
//  452   
//  453     if(keyPressSW4)
        MOV     DPTR,#keyPressSW4
        MOVX    A,@DPTR
        JZ      ??GenericApp_ProcessEvent_21
//  454     {
//  455      /*
//  456       dstAddr.addrMode = Addr16Bit;
//  457       dstAddr.addr.shortAddr = NWK_BROADCAST_SHORTADDR_DEVALL;
//  458       ZDP_MatchDescReq( &dstAddr,NWK_BROADCAST_SHORTADDR_DEVALL,
//  459                         GENERICAPP_PROFID,
//  460                         GENERICAPP_MAX_CLUSTERS, (cId_t *)GenericApp_ClusterList,
//  461                         GENERICAPP_MAX_CLUSTERS, (cId_t *)GenericApp_ClusterList,
//  462                         FALSE ); 
//  463      */ 
//  464       
//  465       dstAddr.addrMode = Addr16Bit;
        MOV     A,#0x8
        LCALL   ?XSTACK_DISP0_8
        MOV     A,#0x2
        MOVX    @DPTR,A
//  466       dstAddr.addr.shortAddr = NLME_GetShortAddr();
        ; Setup parameters for call to function NLME_GetShortAddr
        LCALL   `??NLME_GetShortAddr::?relay`; Banked call to: NLME_GetShortAddr
        MOV     DPL,?XSP + 0
        MOV     DPH,?XSP + 1
        MOV     A,R2
        MOVX    @DPTR,A
        INC     DPTR
        MOV     A,R3
        MOVX    @DPTR,A
//  467       ZDP_EndDeviceBindReq( &dstAddr, 0x0000,
//  468                             GenericApp_epDesc.endPoint,
//  469                             GENERICAPP_PROFID,
//  470                             GENERICAPP_MAX_CLUSTERS, (cId_t *)GenericApp_ClusterList,
//  471                             GENERICAPP_MAX_CLUSTERS, (cId_t *)GenericApp_ClusterList,
//  472                             FALSE );
        MOV     ?V2,#GenericApp_ClusterList & 0xff
        MOV     ?V3,#(GenericApp_ClusterList >> 8) & 0xff
        ; Setup parameters for call to function ZDP_EndDeviceBindReq
        MOV     ?V4,#0x0
        MOV     R0,#?V4
        LCALL   ?PUSH_XSTACK_I_ONE
          CFI CFA_XSP16 add(XSP16, 24)
        MOV     R0,#?V2
        LCALL   ?PUSH_XSTACK_I_TWO
          CFI CFA_XSP16 add(XSP16, 26)
        MOV     ?V4,#0x1
        MOV     R0,#?V4
        LCALL   ?PUSH_XSTACK_I_ONE
          CFI CFA_XSP16 add(XSP16, 27)
        MOV     R0,#?V2
        LCALL   ?PUSH_XSTACK_I_TWO
          CFI CFA_XSP16 add(XSP16, 29)
        MOV     ?V2,#0x1
        MOV     R0,#?V2
        LCALL   ?PUSH_XSTACK_I_ONE
          CFI CFA_XSP16 add(XSP16, 30)
        MOV     ?V2,#0x4
        MOV     ?V3,#0xf
        MOV     R0,#?V2
        LCALL   ?PUSH_XSTACK_I_TWO
          CFI CFA_XSP16 add(XSP16, 32)
        MOV     DPTR,#GenericApp_epDesc
        MOVX    A,@DPTR
        MOV     R1,A
        MOV     R4,#0x0
        MOV     R5,#0x0
        MOV     A,#0x9
        LCALL   ?XSTACK_DISP101_8
        LCALL   `??ZDP_EndDeviceBindReq::?relay`; Banked call to: ZDP_EndDeviceBindReq
        MOV     A,#0x9
        LCALL   ?DEALLOC_XSTACK8
          CFI CFA_XSP16 add(XSP16, 23)
//  473       
//  474      
//  475      
//  476       
//  477       keyPressSW4 = 0;
        MOV     DPTR,#keyPressSW4
        CLR     A
        MOVX    @DPTR,A
//  478       
//  479       osal_set_event(GenericApp_TaskID,GENERICAPP_SEND_MSG_EVT);
        ; Setup parameters for call to function osal_set_event
        MOV     R2,#0x1
        MOV     R3,A
        MOV     DPTR,#GenericApp_TaskID
        MOVX    A,@DPTR
        MOV     R1,A
        LCALL   `??osal_set_event::?relay`; Banked call to: osal_set_event
        SJMP    ??GenericApp_ProcessEvent_22
//  480       
//  481     }
//  482     else
//  483     {
//  484      
//  485       
//  486     // Send "the" message
//  487     GenericApp_SendTheMessage();
??GenericApp_ProcessEvent_21:
        ; Setup parameters for call to function GenericApp_SendTheMessage
        LCALL   `??GenericApp_SendTheMessage::?relay`; Banked call to: GenericApp_SendTheMessage
//  488      
//  489 #if BME280_SENSOR    
//  490      //Setup to send message again evry 1000 ms
//  491      osal_start_timerEx( GenericApp_TaskID,
//  492                          GENERICAPP_SEND_MSG_EVT,
//  493                          4000);
        ; Setup parameters for call to function osal_start_timerEx
        MOV     DPTR,#__Constant_fa0
        LCALL   ?PUSH_XSTACK8_X_FOUR
          CFI CFA_XSP16 add(XSP16, 27)
        MOV     R2,#0x1
        MOV     R3,#0x0
        MOV     DPTR,#GenericApp_TaskID
        MOVX    A,@DPTR
        MOV     R1,A
        LCALL   `??osal_start_timerEx::?relay`; Banked call to: osal_start_timerEx
        MOV     A,#0x4
        LCALL   ?DEALLOC_XSTACK8
          CFI CFA_XSP16 add(XSP16, 23)
//  494 #endif
//  495 #if !BME280_SENSOR     
//  496      osal_start_timerEx( GenericApp_TaskID,
//  497                          GENERICAPP_SEND_MSG_EVT,
//  498                          1000);
//  499     
//  500     
//  501     
//  502 #endif
//  503     }    
//  504 
//  505 // return unprocessed events
//  506     return (events ^ GENERICAPP_SEND_MSG_EVT);
??GenericApp_ProcessEvent_22:
        MOV     A,?V0
        XRL     A,#0x1
        MOV     R2,A
        MOV     R3,?V1
        SJMP    ??GenericApp_ProcessEvent_19
//  507   }
//  508 
//  509 #if defined( IAR_ARMCM3_LM )
//  510   // Receive a message from the RTOS queue
//  511   if ( events & GENERICAPP_RTOS_MSG_EVT )
//  512   {
//  513     // Process message from RTOS queue
//  514     GenericApp_ProcessRtosMessage();
//  515 
//  516     // return unprocessed events
//  517     return (events ^ GENERICAPP_RTOS_MSG_EVT);
//  518   }
//  519 #endif
//  520 
//  521   // Discard unknown events
//  522   return 0;
??GenericApp_ProcessEvent_20:
        MOV     R2,#0x0
        MOV     R3,#0x0
??GenericApp_ProcessEvent_19:
        MOV     A,#0x9
        LCALL   ?DEALLOC_XSTACK8
          CFI CFA_XSP16 add(XSP16, 14)
        MOV     R7,#0x6
        LJMP    ?BANKED_LEAVE_XDATA
//  523 }
          CFI EndBlock cfiBlock1
//  524 
//  525 /*********************************************************************
//  526  * Event Generation Functions
//  527  */
//  528 
//  529 /*********************************************************************
//  530  * @fn      GenericApp_ProcessZDOMsgs()
//  531  *
//  532  * @brief   Process response messages
//  533  *
//  534  * @param   none
//  535  *
//  536  * @return  none
//  537  */
//  538 static void GenericApp_ProcessZDOMsgs( zdoIncomingMsg_t *inMsg )
//  539 {
//  540  
//  541   switch ( inMsg->clusterID )
//  542   {
//  543     case End_Device_Bind_rsp:
//  544       if ( ZDO_ParseBindRsp( inMsg ) == ZSuccess )
//  545       {
//  546         // Light LED
//  547         HalLedSet( HAL_LED_4, HAL_LED_MODE_ON );
//  548       }
//  549 #if defined( BLINK_LEDS )
//  550       else
//  551       {
//  552         // Flash LED to show failure
//  553         HalLedSet ( HAL_LED_4, HAL_LED_MODE_FLASH );
//  554       }
//  555 #endif
//  556       break;
//  557 
//  558     case Match_Desc_rsp:
//  559       {
//  560         ZDO_ActiveEndpointRsp_t *pRsp = ZDO_ParseEPListRsp( inMsg );
//  561         if ( pRsp )
//  562         {
//  563           
//  564           
//  565               if ( pRsp->status == ZSuccess && pRsp->cnt )
//  566               {
//  567                 
//  568             GenericApp_DstAddr.addrMode = (afAddrMode_t)Addr16Bit;
//  569             GenericApp_DstAddr.addr.shortAddr = pRsp->nwkAddr;
//  570             // Take the first endpoint, Can be changed to search through endpoints
//  571             GenericApp_DstAddr.endPoint = pRsp->epList[0];
//  572 
//  573             // Light LED
//  574             HalLedSet( HAL_LED_4, HAL_LED_MODE_ON );
//  575           }
//  576           osal_mem_free( pRsp );
//  577         }
//  578       }
//  579       break;
//  580   }
//  581 }
//  582 
//  583 /*********************************************************************
//  584  * @fn      GenericApp_HandleKeys
//  585  *
//  586  * @brief   Handles all key events for this device.
//  587  *
//  588  * @param   shift - true if in shift/alt.
//  589  * @param   keys - bit field for key events. Valid entries:
//  590  *                 HAL_KEY_SW_4
//  591  *                 HAL_KEY_SW_3
//  592  *                 HAL_KEY_SW_2
//  593  *                 HAL_KEY_SW_1
//  594  *
//  595  * @return  none
//  596  */
//  597 static void GenericApp_HandleKeys( uint8 shift, uint8 keys )
//  598 {
//  599   zAddrType_t dstAddr;
//  600 
//  601   // Shift is used to make each button/switch dual purpose.
//  602   if ( shift )
//  603   {
//  604     if ( keys & HAL_KEY_SW_1 )
//  605     {
//  606     }
//  607     if ( keys & HAL_KEY_SW_2 )
//  608     {
//  609     }
//  610     if ( keys & HAL_KEY_SW_3 )
//  611     {
//  612     }
//  613     if ( keys & HAL_KEY_SW_4 )
//  614     {
//  615     }
//  616   }
//  617   else
//  618   {
//  619     if ( keys & HAL_KEY_SW_1 )
//  620     {
//  621 #if defined( SWITCH1_BIND )
//  622       // We can use SW1 to simulate SW2 for devices that only have one switch,
//  623       keys |= HAL_KEY_SW_2;
//  624 #elif defined( SWITCH1_MATCH )
//  625       // or use SW1 to simulate SW4 for devices that only have one switch
//  626       keys |= HAL_KEY_SW_4;
//  627 #else
//  628       // Normally, SW1 changes the rate that messages are sent
//  629       if ( txMsgDelay > 100 )
//  630       {
//  631         // Cut the message TX delay in half
//  632         txMsgDelay /= 2;
//  633       }
//  634       else
//  635       {
//  636         // Reset to the default
//  637         txMsgDelay = GENERICAPP_SEND_MSG_TIMEOUT;
//  638       }
//  639 #endif
//  640     }
//  641 
//  642     if ( keys & HAL_KEY_SW_2 )
//  643     {
//  644       HalLedSet ( HAL_LED_4, HAL_LED_MODE_OFF );
//  645 
//  646       // Initiate an End Device Bind Request for the mandatory endpoint
//  647       dstAddr.addrMode = Addr16Bit;
//  648       dstAddr.addr.shortAddr = 0x0000; // Coordinator
//  649       ZDP_EndDeviceBindReq( &dstAddr, NLME_GetShortAddr(),
//  650                             GenericApp_epDesc.endPoint,
//  651                             GENERICAPP_PROFID,
//  652                             GENERICAPP_MAX_CLUSTERS, (cId_t *)GenericApp_ClusterList,
//  653                             GENERICAPP_MAX_CLUSTERS, (cId_t *)GenericApp_ClusterList,
//  654                             FALSE );
//  655     }
//  656 
//  657     if ( keys & HAL_KEY_SW_3 )
//  658     {
//  659     }
//  660 
//  661     if ( keys & HAL_KEY_SW_4 )
//  662     {
//  663       HalLedSet ( HAL_LED_4, HAL_LED_MODE_OFF );
//  664       // Initiate a Match Description Request (Service Discovery)
//  665       dstAddr.addrMode = AddrBroadcast;
//  666       dstAddr.addr.shortAddr = NWK_BROADCAST_SHORTADDR;
//  667       ZDP_MatchDescReq( &dstAddr, NWK_BROADCAST_SHORTADDR,
//  668                         GENERICAPP_PROFID,
//  669                         GENERICAPP_MAX_CLUSTERS, (cId_t *)GenericApp_ClusterList,
//  670                         GENERICAPP_MAX_CLUSTERS, (cId_t *)GenericApp_ClusterList,
//  671                         FALSE );
//  672     }
//  673   }
//  674 }
//  675 
//  676 /*********************************************************************
//  677  * LOCAL FUNCTIONS
//  678  */
//  679 
//  680 /*********************************************************************
//  681  * @fn      GenericApp_MessageMSGCB
//  682  *
//  683  * @brief   Data message processor callback.  This function processes
//  684  *          any incoming data - probably from other devices.  So, based
//  685  *          on cluster ID, perform the intended action.
//  686  *
//  687  * @param   none
//  688  *
//  689  * @return  none
//  690  */
//  691 static void GenericApp_MessageMSGCB( afIncomingMSGPacket_t *pkt )
//  692 { 
//  693   uint8 i;
//  694  
//  695 
//  696   switch ( pkt->clusterId )
//  697   {
//  698     case GENERICAPP_CLUSTERID:
//  699       
//  700             // Count this message
//  701             rxMsgCount += 1;  
//  702       
//  703             HalLcdWriteString("--------------------------------",0);
//  704             HalLcdWriteString("Received data:",0);
//  705       
//  706             for(i = 0;i < pkt->cmd.DataLength;i++)
//  707             {
//  708             uartSend(*(pkt->cmd.Data + i));
//  709             }
//  710       
//  711             HalLcdWriteString("",0);
//  712             HalLcdWriteString("--------------------------------",0);
//  713       
//  714       break;
//  715       
//  716     default:
//  717             HalLcdWriteString("Podatak nije primljen.",0);
//  718         
//  719     break;
//  720       
//  721   }
//  722 
//  723 
//  724 }
//  725 /*********************************************************************
//  726  * @fn      MagneticSwitch_SendTheMessage
//  727  *
//  728  * @brief   Send state of the door
//  729  *
//  730  * @param   none
//  731  *
//  732  * @return  none
//  733  */

        RSEG BANKED_CODE:HUGECODE:NOROOT(0)
//  734 void MotionSensor_SendTheMessage( void )
MotionSensor_SendTheMessage:
          CFI Block cfiBlock2 Using cfiCommon0
          CFI Function MotionSensor_SendTheMessage
        CODE
//  735 {
        FUNCALL MotionSensor_SendTheMessage, motionDetection
        LOCFRAME ISTACK, 0, STACK
        LOCFRAME PSTACK, 0, STACK
        LOCFRAME XSTACK, 12, STACK
        LOCFRAME IOVERLAY, 0, STATIC
        LOCFRAME DOVERLAY, 0, STATIC
        ARGFRAME ISTACK, 0, STACK
        ARGFRAME PSTACK, 0, STACK
        ARGFRAME XSTACK, 12, STACK
        ARGFRAME IOVERLAY, 0, STATIC
        ARGFRAME DOVERLAY, 0, STATIC
        FUNCALL MotionSensor_SendTheMessage, AF_DataRequest
        LOCFRAME ISTACK, 0, STACK
        LOCFRAME PSTACK, 0, STACK
        LOCFRAME XSTACK, 21, STACK
        LOCFRAME IOVERLAY, 0, STATIC
        LOCFRAME DOVERLAY, 0, STATIC
        ARGFRAME ISTACK, 0, STACK
        ARGFRAME PSTACK, 0, STACK
        ARGFRAME XSTACK, 21, STACK
        ARGFRAME IOVERLAY, 0, STATIC
        ARGFRAME DOVERLAY, 0, STATIC
        FUNCALL MotionSensor_SendTheMessage, HalLcdWriteString
        LOCFRAME ISTACK, 0, STACK
        LOCFRAME PSTACK, 0, STACK
        LOCFRAME XSTACK, 12, STACK
        LOCFRAME IOVERLAY, 0, STATIC
        LOCFRAME DOVERLAY, 0, STATIC
        ARGFRAME ISTACK, 0, STACK
        ARGFRAME PSTACK, 0, STACK
        ARGFRAME XSTACK, 12, STACK
        ARGFRAME IOVERLAY, 0, STATIC
        ARGFRAME DOVERLAY, 0, STATIC
        REQUIRE ?V0
        REQUIRE ?V1
        MOV     A,#-0xa
        LCALL   ?BANKED_ENTER_XDATA
          CFI DPH0 load(1, XDATA, add(CFA_XSP16, literal(-1)))
          CFI DPL0 load(1, XDATA, add(CFA_XSP16, literal(-2)))
          CFI ?BRET_EXT load(1, XDATA, add(CFA_XSP16, literal(-3)))
          CFI ?RET_HIGH load(1, XDATA, add(CFA_XSP16, literal(-4)))
          CFI ?RET_LOW load(1, XDATA, add(CFA_XSP16, literal(-5)))
          CFI R7 load(1, XDATA, add(CFA_XSP16, literal(-6)))
          CFI V1 load(1, XDATA, add(CFA_XSP16, literal(-7)))
          CFI V0 load(1, XDATA, add(CFA_XSP16, literal(-8)))
          CFI VB load(1, XDATA, add(CFA_XSP16, literal(-9)))
          CFI R6 load(1, XDATA, add(CFA_XSP16, literal(-10)))
          CFI CFA_SP SP+0
          CFI CFA_XSP16 add(XSP16, 10)
        ; Saved register size: 10
        ; Auto size: 2
        MOV     A,#-0x2
        LCALL   ?ALLOC_XSTACK8
          CFI CFA_XSP16 add(XSP16, 12)
//  736 
//  737   char motionDetected[] = {'M','1'};
        MOV     DPTR,#`?<Constant {77, 49}>`
        MOV     R4,?XSP + 0
        MOV     R5,?XSP + 1
        MOV     A,#0x2
        LCALL   ?MOVE_LONG8_XDATA_XDATA
//  738   //char motionNotDetected[] = {'0'};
//  739    
//  740   if ( motionDetection() )
        ; Setup parameters for call to function motionDetection
        LCALL   `??motionDetection::?relay`; Banked call to: motionDetection
        MOV     A,R1
        JZ      ??MotionSensor_SendTheMessage_0
//  741   {
//  742     // Successfully requested to be sent.
//  743    
//  744     AF_DataRequest( &GenericApp_DstAddr, &GenericApp_epDesc,
//  745                        GENERICAPP_CLUSTERID,
//  746                        3,                                                       
//  747                        (byte *)&motionDetected,
//  748                        &GenericApp_TransID,
//  749                        AF_DISCV_ROUTE, AF_DEFAULT_RADIUS );
        ; Setup parameters for call to function AF_DataRequest
        MOV     ?V0,#0x1e
        MOV     R0,#?V0
        LCALL   ?PUSH_XSTACK_I_ONE
          CFI CFA_XSP16 add(XSP16, 13)
        MOV     ?V0,#GenericApp_TransID & 0xff
        MOV     ?V1,#(GenericApp_TransID >> 8) & 0xff
        MOV     R0,#?V0
        LCALL   ?PUSH_XSTACK_I_TWO
          CFI CFA_XSP16 add(XSP16, 15)
        MOV     A,#0x3
        LCALL   ?XSTACK_DISP100_8
        MOV     ?V0,R0
        MOV     ?V1,R1
        MOV     R0,#?V0
        LCALL   ?PUSH_XSTACK_I_TWO
          CFI CFA_XSP16 add(XSP16, 17)
        MOV     ?V0,#0x3
        MOV     ?V1,#0x0
        MOV     R0,#?V0
        LCALL   ?PUSH_XSTACK_I_TWO
          CFI CFA_XSP16 add(XSP16, 19)
        MOV     ?V0,#0x1
        MOV     R0,#?V0
        LCALL   ?PUSH_XSTACK_I_TWO
          CFI CFA_XSP16 add(XSP16, 21)
        MOV     R1,#0x0
        MOV     R4,#GenericApp_epDesc & 0xff
        MOV     R5,#(GenericApp_epDesc >> 8) & 0xff
        MOV     R2,#GenericApp_DstAddr & 0xff
        MOV     R3,#(GenericApp_DstAddr >> 8) & 0xff
        LCALL   `??AF_DataRequest::?relay`; Banked call to: AF_DataRequest
        MOV     A,#0x9
        LCALL   ?DEALLOC_XSTACK8
          CFI CFA_XSP16 add(XSP16, 12)
//  750     
//  751     HalLcdWriteString("Pokret je detektovan.",0);
        ; Setup parameters for call to function HalLcdWriteString
        MOV     R1,#0x0
        MOV     R2,#`?<Constant "Pokret je detektovan.">` & 0xff
        MOV     R3,#(`?<Constant "Pokret je detektovan.">` >> 8) & 0xff
        LCALL   `??HalLcdWriteString::?relay`; Banked call to: HalLcdWriteString
//  752     
//  753   }
//  754 /*  else
//  755   {
//  756     
//  757     // Error occurred in request to send.
//  758     // HalLcdWriteString("Podatak nije poslan.",0);
//  759     AF_DataRequest( &GenericApp_DstAddr, &GenericApp_epDesc,
//  760                        GENERICAPP_CLUSTERID,
//  761                        2,                                                       
//  762                        (byte *)&motionNotDetected,
//  763                        &GenericApp_TransID,
//  764                        AF_DISCV_ROUTE, AF_DEFAULT_RADIUS );
//  765   
//  766     HalLcdWriteString("Nema kretanja.",0);
//  767     
//  768   }*/
//  769 
//  770 }
??MotionSensor_SendTheMessage_0:
        MOV     A,#0x2
          CFI EndBlock cfiBlock2
        REQUIRE ?Subroutine0
        ; // Fall through to label ?Subroutine0

        RSEG BANKED_CODE:HUGECODE:NOROOT(0)
?Subroutine0:
          CFI Block cfiBlock3 Using cfiCommon0
          CFI NoFunction
          CFI CFA_SP SP+0
          CFI CFA_XSP16 add(XSP16, 12)
          CFI VB load(1, XDATA, add(CFA_XSP16, literal(-9)))
          CFI DPL0 load(1, XDATA, add(CFA_XSP16, literal(-2)))
          CFI DPH0 load(1, XDATA, add(CFA_XSP16, literal(-1)))
          CFI R6 load(1, XDATA, add(CFA_XSP16, literal(-10)))
          CFI R7 load(1, XDATA, add(CFA_XSP16, literal(-6)))
          CFI V0 load(1, XDATA, add(CFA_XSP16, literal(-8)))
          CFI V1 load(1, XDATA, add(CFA_XSP16, literal(-7)))
          CFI ?BRET_EXT load(1, XDATA, add(CFA_XSP16, literal(-3)))
          CFI ?RET_HIGH load(1, XDATA, add(CFA_XSP16, literal(-4)))
          CFI ?RET_LOW load(1, XDATA, add(CFA_XSP16, literal(-5)))
          CFI Invalid
        LCALL   ?DEALLOC_XSTACK8
          CFI CFA_XSP16 add(XSP16, 10)
          CFI Valid
        MOV     R7,#0x2
        LJMP    ?BANKED_LEAVE_XDATA
          CFI EndBlock cfiBlock3
//  771 /*********************************************************************
//  772  * @fn      MagneticSwitch_SendTheMessage
//  773  *
//  774  * @brief   Send state of the door
//  775  *
//  776  * @param   none
//  777  *
//  778  * @return  none
//  779  */

        RSEG BANKED_CODE:HUGECODE:NOROOT(0)
//  780 void MagneticSwitch_SendTheMessage( void )
MagneticSwitch_SendTheMessage:
          CFI Block cfiBlock4 Using cfiCommon0
          CFI Function MagneticSwitch_SendTheMessage
        CODE
//  781 {
        FUNCALL MagneticSwitch_SendTheMessage, AF_DataRequest
        LOCFRAME ISTACK, 0, STACK
        LOCFRAME PSTACK, 0, STACK
        LOCFRAME XSTACK, 23, STACK
        LOCFRAME IOVERLAY, 0, STATIC
        LOCFRAME DOVERLAY, 0, STATIC
        ARGFRAME ISTACK, 0, STACK
        ARGFRAME PSTACK, 0, STACK
        ARGFRAME XSTACK, 23, STACK
        ARGFRAME IOVERLAY, 0, STATIC
        ARGFRAME DOVERLAY, 0, STATIC
        FUNCALL MagneticSwitch_SendTheMessage, HalLcdWriteString
        LOCFRAME ISTACK, 0, STACK
        LOCFRAME PSTACK, 0, STACK
        LOCFRAME XSTACK, 14, STACK
        LOCFRAME IOVERLAY, 0, STATIC
        LOCFRAME DOVERLAY, 0, STATIC
        ARGFRAME ISTACK, 0, STACK
        ARGFRAME PSTACK, 0, STACK
        ARGFRAME XSTACK, 14, STACK
        ARGFRAME IOVERLAY, 0, STATIC
        ARGFRAME DOVERLAY, 0, STATIC
        FUNCALL MagneticSwitch_SendTheMessage, AF_DataRequest
        LOCFRAME ISTACK, 0, STACK
        LOCFRAME PSTACK, 0, STACK
        LOCFRAME XSTACK, 23, STACK
        LOCFRAME IOVERLAY, 0, STATIC
        LOCFRAME DOVERLAY, 0, STATIC
        ARGFRAME ISTACK, 0, STACK
        ARGFRAME PSTACK, 0, STACK
        ARGFRAME XSTACK, 23, STACK
        ARGFRAME IOVERLAY, 0, STATIC
        ARGFRAME DOVERLAY, 0, STATIC
        FUNCALL MagneticSwitch_SendTheMessage, HalLcdWriteString
        LOCFRAME ISTACK, 0, STACK
        LOCFRAME PSTACK, 0, STACK
        LOCFRAME XSTACK, 14, STACK
        LOCFRAME IOVERLAY, 0, STATIC
        LOCFRAME DOVERLAY, 0, STATIC
        ARGFRAME ISTACK, 0, STACK
        ARGFRAME PSTACK, 0, STACK
        ARGFRAME XSTACK, 14, STACK
        ARGFRAME IOVERLAY, 0, STATIC
        ARGFRAME DOVERLAY, 0, STATIC
        REQUIRE ?V0
        REQUIRE ?V1
        MOV     A,#-0xa
        LCALL   ?BANKED_ENTER_XDATA
          CFI DPH0 load(1, XDATA, add(CFA_XSP16, literal(-1)))
          CFI DPL0 load(1, XDATA, add(CFA_XSP16, literal(-2)))
          CFI ?BRET_EXT load(1, XDATA, add(CFA_XSP16, literal(-3)))
          CFI ?RET_HIGH load(1, XDATA, add(CFA_XSP16, literal(-4)))
          CFI ?RET_LOW load(1, XDATA, add(CFA_XSP16, literal(-5)))
          CFI R7 load(1, XDATA, add(CFA_XSP16, literal(-6)))
          CFI V1 load(1, XDATA, add(CFA_XSP16, literal(-7)))
          CFI V0 load(1, XDATA, add(CFA_XSP16, literal(-8)))
          CFI VB load(1, XDATA, add(CFA_XSP16, literal(-9)))
          CFI R6 load(1, XDATA, add(CFA_XSP16, literal(-10)))
          CFI CFA_SP SP+0
          CFI CFA_XSP16 add(XSP16, 10)
        ; Saved register size: 10
        ; Auto size: 4
        MOV     A,#-0x4
        LCALL   ?ALLOC_XSTACK8
          CFI CFA_XSP16 add(XSP16, 14)
//  782 
//  783   char doorOpened[] = {'D','1'};
        MOV     DPTR,#`?<Constant {68, 49}>`
        MOV     A,#0x2
        LCALL   ?XSTACK_DISP102_8
        MOV     A,#0x2
        LCALL   ?MOVE_LONG8_XDATA_XDATA
//  784   char doorClosed[] = {'D','0'};
        MOV     DPTR,#`?<Constant {68, 48}>`
        MOV     R4,?XSP + 0
        MOV     R5,?XSP + 1
        MOV     A,#0x2
        LCALL   ?MOVE_LONG8_XDATA_XDATA
//  785   
//  786   if ( !magneticSwitch_DoorDetection() )
        MOV     C,0xa0.0
        MOV     ?V0,#0x1e
        MOV     R0,#?V0
        JNC     ??MagneticSwitch_SendTheMessage_0
//  787   {
//  788     // Successfully requested to be sent.
//  789     //HalLcdWriteString("Podatak je poslan.",0);
//  790     AF_DataRequest( &GenericApp_DstAddr, &GenericApp_epDesc,
//  791                        GENERICAPP_CLUSTERID,
//  792                        3,                                                       
//  793                        (byte *)&doorOpened,
//  794                        &GenericApp_TransID,
//  795                        AF_DISCV_ROUTE, AF_DEFAULT_RADIUS );
        ; Setup parameters for call to function AF_DataRequest
        LCALL   ?PUSH_XSTACK_I_ONE
          CFI CFA_XSP16 add(XSP16, 15)
        MOV     ?V0,#GenericApp_TransID & 0xff
        MOV     ?V1,#(GenericApp_TransID >> 8) & 0xff
        MOV     R0,#?V0
        LCALL   ?PUSH_XSTACK_I_TWO
          CFI CFA_XSP16 add(XSP16, 17)
        MOV     A,#0x5
        LCALL   ?XSTACK_DISP100_8
        MOV     ?V0,R0
        MOV     ?V1,R1
        MOV     R0,#?V0
        LCALL   ?PUSH_XSTACK_I_TWO
          CFI CFA_XSP16 add(XSP16, 19)
        MOV     ?V0,#0x3
        MOV     ?V1,#0x0
        MOV     R0,#?V0
        LCALL   ?PUSH_XSTACK_I_TWO
          CFI CFA_XSP16 add(XSP16, 21)
        MOV     ?V0,#0x1
        MOV     R0,#?V0
        LCALL   ?PUSH_XSTACK_I_TWO
          CFI CFA_XSP16 add(XSP16, 23)
        MOV     R1,#0x0
        MOV     R4,#GenericApp_epDesc & 0xff
        MOV     R5,#(GenericApp_epDesc >> 8) & 0xff
        MOV     R2,#GenericApp_DstAddr & 0xff
        MOV     R3,#(GenericApp_DstAddr >> 8) & 0xff
        LCALL   `??AF_DataRequest::?relay`; Banked call to: AF_DataRequest
        MOV     A,#0x9
        LCALL   ?DEALLOC_XSTACK8
          CFI CFA_XSP16 add(XSP16, 14)
//  796     
//  797     HalLcdWriteString("Otvorena vrata.",0);
        ; Setup parameters for call to function HalLcdWriteString
        MOV     R1,#0x0
        MOV     R2,#`?<Constant "Otvorena vrata.">` & 0xff
        MOV     R3,#(`?<Constant "Otvorena vrata.">` >> 8) & 0xff
        SJMP    ??MagneticSwitch_SendTheMessage_1
//  798     
//  799   }
//  800   else
//  801   {
//  802     
//  803     // Error occurred in request to send.
//  804     // HalLcdWriteString("Podatak nije poslan.",0);
//  805     AF_DataRequest( &GenericApp_DstAddr, &GenericApp_epDesc,
//  806                        GENERICAPP_CLUSTERID,
//  807                        3,                                                       
//  808                        (byte *)&doorClosed,
//  809                        &GenericApp_TransID,
//  810                        AF_DISCV_ROUTE, AF_DEFAULT_RADIUS );
??MagneticSwitch_SendTheMessage_0:
        ; Setup parameters for call to function AF_DataRequest
        LCALL   ?PUSH_XSTACK_I_ONE
          CFI CFA_XSP16 add(XSP16, 15)
        MOV     ?V0,#GenericApp_TransID & 0xff
        MOV     ?V1,#(GenericApp_TransID >> 8) & 0xff
        MOV     R0,#?V0
        LCALL   ?PUSH_XSTACK_I_TWO
          CFI CFA_XSP16 add(XSP16, 17)
        MOV     A,#0x3
        LCALL   ?XSTACK_DISP100_8
        MOV     ?V0,R0
        MOV     ?V1,R1
        MOV     R0,#?V0
        LCALL   ?PUSH_XSTACK_I_TWO
          CFI CFA_XSP16 add(XSP16, 19)
        MOV     ?V0,#0x3
        MOV     ?V1,#0x0
        MOV     R0,#?V0
        LCALL   ?PUSH_XSTACK_I_TWO
          CFI CFA_XSP16 add(XSP16, 21)
        MOV     ?V0,#0x1
        MOV     R0,#?V0
        LCALL   ?PUSH_XSTACK_I_TWO
          CFI CFA_XSP16 add(XSP16, 23)
        MOV     R1,#0x0
        MOV     R4,#GenericApp_epDesc & 0xff
        MOV     R5,#(GenericApp_epDesc >> 8) & 0xff
        MOV     R2,#GenericApp_DstAddr & 0xff
        MOV     R3,#(GenericApp_DstAddr >> 8) & 0xff
        LCALL   `??AF_DataRequest::?relay`; Banked call to: AF_DataRequest
        MOV     A,#0x9
        LCALL   ?DEALLOC_XSTACK8
          CFI CFA_XSP16 add(XSP16, 14)
//  811   
//  812     HalLcdWriteString("Zatvorena vrata.",0);
        ; Setup parameters for call to function HalLcdWriteString
        MOV     R1,#0x0
        MOV     R2,#`?<Constant "Zatvorena vrata.">` & 0xff
        MOV     R3,#(`?<Constant "Zatvorena vrata.">` >> 8) & 0xff
??MagneticSwitch_SendTheMessage_1:
        LCALL   `??HalLcdWriteString::?relay`; Banked call to: HalLcdWriteString
//  813     
//  814   }
//  815 
//  816 }
        MOV     A,#0x4
        LJMP    ?Subroutine0 & 0xFFFF
          CFI EndBlock cfiBlock4
        REQUIRE _A_P2
//  817 /*********************************************************************
//  818  * @fn      GenericApp_SendTheMessage
//  819  *
//  820  * @brief   Send "the" message.
//  821  *
//  822  * @param   none
//  823  *
//  824  * @return  none
//  825  */

        RSEG BANKED_CODE:HUGECODE:NOROOT(0)
//  826 static void GenericApp_SendTheMessage( void )
GenericApp_SendTheMessage:
          CFI Block cfiBlock5 Using cfiCommon0
          CFI Function GenericApp_SendTheMessage
        CODE
//  827 {
        FUNCALL GenericApp_SendTheMessage, bme280_data_readout
        LOCFRAME ISTACK, 0, STACK
        LOCFRAME PSTACK, 0, STACK
        LOCFRAME XSTACK, 40, STACK
        LOCFRAME IOVERLAY, 0, STATIC
        LOCFRAME DOVERLAY, 0, STATIC
        ARGFRAME ISTACK, 0, STACK
        ARGFRAME PSTACK, 0, STACK
        ARGFRAME XSTACK, 40, STACK
        ARGFRAME IOVERLAY, 0, STATIC
        ARGFRAME DOVERLAY, 0, STATIC
        FUNCALL GenericApp_SendTheMessage, sprintf
        LOCFRAME ISTACK, 0, STACK
        LOCFRAME PSTACK, 0, STACK
        LOCFRAME XSTACK, 44, STACK
        LOCFRAME IOVERLAY, 0, STATIC
        LOCFRAME DOVERLAY, 0, STATIC
        ARGFRAME ISTACK, 0, STACK
        ARGFRAME PSTACK, 0, STACK
        ARGFRAME XSTACK, 44, STACK
        ARGFRAME IOVERLAY, 0, STATIC
        ARGFRAME DOVERLAY, 0, STATIC
        FUNCALL GenericApp_SendTheMessage, sprintf
        LOCFRAME ISTACK, 0, STACK
        LOCFRAME PSTACK, 0, STACK
        LOCFRAME XSTACK, 44, STACK
        LOCFRAME IOVERLAY, 0, STATIC
        LOCFRAME DOVERLAY, 0, STATIC
        ARGFRAME ISTACK, 0, STACK
        ARGFRAME PSTACK, 0, STACK
        ARGFRAME XSTACK, 44, STACK
        ARGFRAME IOVERLAY, 0, STATIC
        ARGFRAME DOVERLAY, 0, STATIC
        FUNCALL GenericApp_SendTheMessage, sprintf
        LOCFRAME ISTACK, 0, STACK
        LOCFRAME PSTACK, 0, STACK
        LOCFRAME XSTACK, 44, STACK
        LOCFRAME IOVERLAY, 0, STATIC
        LOCFRAME DOVERLAY, 0, STATIC
        ARGFRAME ISTACK, 0, STACK
        ARGFRAME PSTACK, 0, STACK
        ARGFRAME XSTACK, 44, STACK
        ARGFRAME IOVERLAY, 0, STATIC
        ARGFRAME DOVERLAY, 0, STATIC
        FUNCALL GenericApp_SendTheMessage, osal_strlen
        LOCFRAME ISTACK, 0, STACK
        LOCFRAME PSTACK, 0, STACK
        LOCFRAME XSTACK, 40, STACK
        LOCFRAME IOVERLAY, 0, STATIC
        LOCFRAME DOVERLAY, 0, STATIC
        ARGFRAME ISTACK, 0, STACK
        ARGFRAME PSTACK, 0, STACK
        ARGFRAME XSTACK, 40, STACK
        ARGFRAME IOVERLAY, 0, STATIC
        ARGFRAME DOVERLAY, 0, STATIC
        FUNCALL GenericApp_SendTheMessage, AF_DataRequest
        LOCFRAME ISTACK, 0, STACK
        LOCFRAME PSTACK, 0, STACK
        LOCFRAME XSTACK, 49, STACK
        LOCFRAME IOVERLAY, 0, STATIC
        LOCFRAME DOVERLAY, 0, STATIC
        ARGFRAME ISTACK, 0, STACK
        ARGFRAME PSTACK, 0, STACK
        ARGFRAME XSTACK, 49, STACK
        ARGFRAME IOVERLAY, 0, STATIC
        ARGFRAME DOVERLAY, 0, STATIC
        FUNCALL GenericApp_SendTheMessage, HalLcdWriteString
        LOCFRAME ISTACK, 0, STACK
        LOCFRAME PSTACK, 0, STACK
        LOCFRAME XSTACK, 40, STACK
        LOCFRAME IOVERLAY, 0, STATIC
        LOCFRAME DOVERLAY, 0, STATIC
        ARGFRAME ISTACK, 0, STACK
        ARGFRAME PSTACK, 0, STACK
        ARGFRAME XSTACK, 40, STACK
        ARGFRAME IOVERLAY, 0, STATIC
        ARGFRAME DOVERLAY, 0, STATIC
        FUNCALL GenericApp_SendTheMessage, HalLcdWriteString
        LOCFRAME ISTACK, 0, STACK
        LOCFRAME PSTACK, 0, STACK
        LOCFRAME XSTACK, 40, STACK
        LOCFRAME IOVERLAY, 0, STATIC
        LOCFRAME DOVERLAY, 0, STATIC
        ARGFRAME ISTACK, 0, STACK
        ARGFRAME PSTACK, 0, STACK
        ARGFRAME XSTACK, 40, STACK
        ARGFRAME IOVERLAY, 0, STATIC
        ARGFRAME DOVERLAY, 0, STATIC
        FUNCALL GenericApp_SendTheMessage, osal_strlen
        LOCFRAME ISTACK, 0, STACK
        LOCFRAME PSTACK, 0, STACK
        LOCFRAME XSTACK, 40, STACK
        LOCFRAME IOVERLAY, 0, STATIC
        LOCFRAME DOVERLAY, 0, STATIC
        ARGFRAME ISTACK, 0, STACK
        ARGFRAME PSTACK, 0, STACK
        ARGFRAME XSTACK, 40, STACK
        ARGFRAME IOVERLAY, 0, STATIC
        ARGFRAME DOVERLAY, 0, STATIC
        FUNCALL GenericApp_SendTheMessage, AF_DataRequest
        LOCFRAME ISTACK, 0, STACK
        LOCFRAME PSTACK, 0, STACK
        LOCFRAME XSTACK, 49, STACK
        LOCFRAME IOVERLAY, 0, STATIC
        LOCFRAME DOVERLAY, 0, STATIC
        ARGFRAME ISTACK, 0, STACK
        ARGFRAME PSTACK, 0, STACK
        ARGFRAME XSTACK, 49, STACK
        ARGFRAME IOVERLAY, 0, STATIC
        ARGFRAME DOVERLAY, 0, STATIC
        FUNCALL GenericApp_SendTheMessage, HalLcdWriteString
        LOCFRAME ISTACK, 0, STACK
        LOCFRAME PSTACK, 0, STACK
        LOCFRAME XSTACK, 40, STACK
        LOCFRAME IOVERLAY, 0, STATIC
        LOCFRAME DOVERLAY, 0, STATIC
        ARGFRAME ISTACK, 0, STACK
        ARGFRAME PSTACK, 0, STACK
        ARGFRAME XSTACK, 40, STACK
        ARGFRAME IOVERLAY, 0, STATIC
        ARGFRAME DOVERLAY, 0, STATIC
        FUNCALL GenericApp_SendTheMessage, HalLcdWriteString
        LOCFRAME ISTACK, 0, STACK
        LOCFRAME PSTACK, 0, STACK
        LOCFRAME XSTACK, 40, STACK
        LOCFRAME IOVERLAY, 0, STATIC
        LOCFRAME DOVERLAY, 0, STATIC
        ARGFRAME ISTACK, 0, STACK
        ARGFRAME PSTACK, 0, STACK
        ARGFRAME XSTACK, 40, STACK
        ARGFRAME IOVERLAY, 0, STATIC
        ARGFRAME DOVERLAY, 0, STATIC
        FUNCALL GenericApp_SendTheMessage, osal_strlen
        LOCFRAME ISTACK, 0, STACK
        LOCFRAME PSTACK, 0, STACK
        LOCFRAME XSTACK, 40, STACK
        LOCFRAME IOVERLAY, 0, STATIC
        LOCFRAME DOVERLAY, 0, STATIC
        ARGFRAME ISTACK, 0, STACK
        ARGFRAME PSTACK, 0, STACK
        ARGFRAME XSTACK, 40, STACK
        ARGFRAME IOVERLAY, 0, STATIC
        ARGFRAME DOVERLAY, 0, STATIC
        FUNCALL GenericApp_SendTheMessage, AF_DataRequest
        LOCFRAME ISTACK, 0, STACK
        LOCFRAME PSTACK, 0, STACK
        LOCFRAME XSTACK, 49, STACK
        LOCFRAME IOVERLAY, 0, STATIC
        LOCFRAME DOVERLAY, 0, STATIC
        ARGFRAME ISTACK, 0, STACK
        ARGFRAME PSTACK, 0, STACK
        ARGFRAME XSTACK, 49, STACK
        ARGFRAME IOVERLAY, 0, STATIC
        ARGFRAME DOVERLAY, 0, STATIC
        FUNCALL GenericApp_SendTheMessage, HalLcdWriteString
        LOCFRAME ISTACK, 0, STACK
        LOCFRAME PSTACK, 0, STACK
        LOCFRAME XSTACK, 40, STACK
        LOCFRAME IOVERLAY, 0, STATIC
        LOCFRAME DOVERLAY, 0, STATIC
        ARGFRAME ISTACK, 0, STACK
        ARGFRAME PSTACK, 0, STACK
        ARGFRAME XSTACK, 40, STACK
        ARGFRAME IOVERLAY, 0, STATIC
        ARGFRAME DOVERLAY, 0, STATIC
        FUNCALL GenericApp_SendTheMessage, HalLcdWriteString
        LOCFRAME ISTACK, 0, STACK
        LOCFRAME PSTACK, 0, STACK
        LOCFRAME XSTACK, 40, STACK
        LOCFRAME IOVERLAY, 0, STATIC
        LOCFRAME DOVERLAY, 0, STATIC
        ARGFRAME ISTACK, 0, STACK
        ARGFRAME PSTACK, 0, STACK
        ARGFRAME XSTACK, 40, STACK
        ARGFRAME IOVERLAY, 0, STATIC
        ARGFRAME DOVERLAY, 0, STATIC
        REQUIRE ?V0
        REQUIRE ?V1
        REQUIRE ?V2
        REQUIRE ?V3
        REQUIRE ?V4
        REQUIRE ?V5
        REQUIRE ?V6
        REQUIRE ?V7
        MOV     A,#-0x10
        LCALL   ?BANKED_ENTER_XDATA
          CFI DPH0 load(1, XDATA, add(CFA_XSP16, literal(-1)))
          CFI DPL0 load(1, XDATA, add(CFA_XSP16, literal(-2)))
          CFI ?BRET_EXT load(1, XDATA, add(CFA_XSP16, literal(-3)))
          CFI ?RET_HIGH load(1, XDATA, add(CFA_XSP16, literal(-4)))
          CFI ?RET_LOW load(1, XDATA, add(CFA_XSP16, literal(-5)))
          CFI R7 load(1, XDATA, add(CFA_XSP16, literal(-6)))
          CFI V7 load(1, XDATA, add(CFA_XSP16, literal(-7)))
          CFI V6 load(1, XDATA, add(CFA_XSP16, literal(-8)))
          CFI V5 load(1, XDATA, add(CFA_XSP16, literal(-9)))
          CFI V4 load(1, XDATA, add(CFA_XSP16, literal(-10)))
          CFI V3 load(1, XDATA, add(CFA_XSP16, literal(-11)))
          CFI V2 load(1, XDATA, add(CFA_XSP16, literal(-12)))
          CFI V1 load(1, XDATA, add(CFA_XSP16, literal(-13)))
          CFI V0 load(1, XDATA, add(CFA_XSP16, literal(-14)))
          CFI VB load(1, XDATA, add(CFA_XSP16, literal(-15)))
          CFI R6 load(1, XDATA, add(CFA_XSP16, literal(-16)))
          CFI CFA_SP SP+0
          CFI CFA_XSP16 add(XSP16, 16)
        ; Saved register size: 16
        ; Auto size: 24
        MOV     A,#-0x18
        LCALL   ?ALLOC_XSTACK8
          CFI CFA_XSP16 add(XSP16, 40)
//  828   uint16 shortAdrress;
//  829   char shAddr[4];
//  830   uint8 i;
//  831   
//  832  
//  833   char theMessageData[] = "Hello World";
//  834   //char doorOpened[3] = "D1";
//  835   //char doorClosed[3] = "D0"; 
//  836   char motionDetected[] = {'1'};
//  837   char motionNotDetected[] = {'0'};
//  838   
//  839   char theOpticalData[5];
//  840   uint16 optDat;
//  841   
//  842   uint8 dataFromBME280;
//  843   //s32 temperatura;
//  844   
//  845   
//  846   
//  847 //*****************************************************************************
//  848 //BME280
//  849 //*****************************************************************************
//  850 #if BME280_SENSOR
//  851   
//  852 
//  853   
//  854   
//  855   char temperature[6];
//  856   char humidity[6];
//  857   char pressure[12];
//  858   
//  859  
//  860   bme280_data_readout(&bme280, &Value);
        ; Setup parameters for call to function bme280_data_readout
        MOV     R4,#Value & 0xff
        MOV     R5,#(Value >> 8) & 0xff
        MOV     R2,#bme280 & 0xff
        MOV     R3,#(bme280 >> 8) & 0xff
        LCALL   `??bme280_data_readout::?relay`; Banked call to: bme280_data_readout
//  861    
//  862   
//  863     sprintf(temperature,"T%d",Value.temp);
        ; Setup parameters for call to function sprintf
        MOV     DPTR,#Value
        LCALL   ?PUSH_XSTACK8_X_FOUR
          CFI CFA_XSP16 add(XSP16, 44)
        MOV     R4,#`?<Constant "T%d">` & 0xff
        MOV     R5,#(`?<Constant "T%d">` >> 8) & 0xff
        MOV     A,#0xa
        LCALL   ?XSTACK_DISP101_8
        LCALL   `??sprintf::?relay`  ; Banked call to: sprintf
        MOV     A,#0x4
        LCALL   ?DEALLOC_XSTACK8
          CFI CFA_XSP16 add(XSP16, 40)
//  864     sprintf(humidity,"H%d",Value.humid/1024);
        ; Setup parameters for call to function sprintf
        MOV     DPTR,#Value + 8
        MOV     R0,#?V0
        LCALL   ?L_MOV_X
        MOV     A,#0xa
        MOV     R0,#?V0
        LCALL   ?UL_SHR
        MOV     R0,#?V0
        LCALL   ?PUSH_XSTACK_I_FOUR
          CFI CFA_XSP16 add(XSP16, 44)
        MOV     R4,#`?<Constant "H%d">` & 0xff
        MOV     R5,#(`?<Constant "H%d">` >> 8) & 0xff
        MOV     A,#0x4
        LCALL   ?XSTACK_DISP101_8
        LCALL   `??sprintf::?relay`  ; Banked call to: sprintf
        MOV     A,#0x4
        LCALL   ?DEALLOC_XSTACK8
          CFI CFA_XSP16 add(XSP16, 40)
//  865     sprintf(pressure,"P%d",Value.press/100);
        ; Setup parameters for call to function sprintf
        MOV     DPTR,#Value + 4
        MOV     R0,#?V0
        LCALL   ?L_MOV_X
        MOV     DPTR,#__Constant_64
        MOV     R0,#?V4
        LCALL   ?L_MOV_X
        MOV     R0,#?V0
        MOV     R1,#?V4
        LCALL   ?UL_DIV_MOD
        MOV     R0,#?V0
        LCALL   ?PUSH_XSTACK_I_FOUR
          CFI CFA_XSP16 add(XSP16, 44)
        MOV     R4,#`?<Constant "P%d">` & 0xff
        MOV     R5,#(`?<Constant "P%d">` >> 8) & 0xff
        MOV     A,#0x10
        LCALL   ?XSTACK_DISP101_8
        LCALL   `??sprintf::?relay`  ; Banked call to: sprintf
        MOV     A,#0x4
        LCALL   ?DEALLOC_XSTACK8
          CFI CFA_XSP16 add(XSP16, 40)
//  866     
//  867  
//  868     //TEMPERATURE
//  869     if ( AF_DataRequest( &GenericApp_DstAddr, &GenericApp_epDesc,
//  870                           GENERICAPP_CLUSTERID,
//  871                           (byte)osal_strlen( temperature ) + 1,
//  872                           (byte *)&temperature,
//  873                           &GenericApp_TransID,
//  874                           AF_DISCV_ROUTE, AF_DEFAULT_RADIUS ) == afStatus_SUCCESS )
        ; Setup parameters for call to function osal_strlen
        MOV     A,#0x6
        LCALL   ?XSTACK_DISP101_8
        LCALL   `??osal_strlen::?relay`; Banked call to: osal_strlen
        ; Setup parameters for call to function AF_DataRequest
        MOV     ?V0,#0x1e
        MOV     R0,#?V0
        LCALL   ?PUSH_XSTACK_I_ONE
          CFI CFA_XSP16 add(XSP16, 41)
        MOV     ?V0,#GenericApp_TransID & 0xff
        MOV     ?V1,#(GenericApp_TransID >> 8) & 0xff
        MOV     R0,#?V0
        LCALL   ?PUSH_XSTACK_I_TWO
          CFI CFA_XSP16 add(XSP16, 43)
        MOV     A,#0x9
        LCALL   ?XSTACK_DISP100_8
        MOV     ?V0,R0
        MOV     ?V1,R1
        MOV     R0,#?V0
        LCALL   ?PUSH_XSTACK_I_TWO
          CFI CFA_XSP16 add(XSP16, 45)
        LCALL   ?Subroutine2 & 0xFFFF
??CrossCallReturnLabel_0:
        LCALL   ?PUSH_XSTACK_I_TWO
          CFI CFA_XSP16 add(XSP16, 47)
        MOV     ?V0,#0x1
        MOV     ?V1,#0x0
        MOV     R0,#?V0
        LCALL   ?PUSH_XSTACK_I_TWO
          CFI CFA_XSP16 add(XSP16, 49)
        MOV     R1,#0x0
        MOV     R4,#GenericApp_epDesc & 0xff
        MOV     R5,#(GenericApp_epDesc >> 8) & 0xff
        MOV     R2,#GenericApp_DstAddr & 0xff
        MOV     R3,#(GenericApp_DstAddr >> 8) & 0xff
        LCALL   `??AF_DataRequest::?relay`; Banked call to: AF_DataRequest
        MOV     A,#0x9
        LCALL   ?DEALLOC_XSTACK8
          CFI CFA_XSP16 add(XSP16, 40)
        MOV     A,R1
        MOV     R1,#0x0
        JNZ     ??GenericApp_SendTheMessage_0
//  875     {
//  876       // Successfully requested to be sent.
//  877       HalLcdWriteString("Podatak je poslan.(Temperatura)",0);
        ; Setup parameters for call to function HalLcdWriteString
        MOV     R2,#`?<Constant "Podatak je poslan.(Te...">` & 0xff
        MOV     R3,#(`?<Constant "Podatak je poslan.(Te...">` >> 8) & 0xff
        SJMP    ??GenericApp_SendTheMessage_1
//  878       //HalLcdWriteString(theMessageData,0);
//  879     }
//  880     else
//  881     {
//  882         // Error occurred in request to send.
//  883         HalLcdWriteString("Podatak nije poslan.(Temperatura)",0);
??GenericApp_SendTheMessage_0:
        ; Setup parameters for call to function HalLcdWriteString
        MOV     R2,#`?<Constant "Podatak nije poslan.(...">` & 0xff
        MOV     R3,#(`?<Constant "Podatak nije poslan.(...">` >> 8) & 0xff
??GenericApp_SendTheMessage_1:
        LCALL   `??HalLcdWriteString::?relay`; Banked call to: HalLcdWriteString
//  884     }
//  885    
//  886    //HUMIDITY
//  887    if ( AF_DataRequest( &GenericApp_DstAddr, &GenericApp_epDesc,
//  888                         GENERICAPP_CLUSTERID,
//  889                         (byte)osal_strlen( humidity ) + 1,
//  890                         (byte *)&humidity,
//  891                         &GenericApp_TransID,
//  892                         AF_DISCV_ROUTE, AF_DEFAULT_RADIUS ) == afStatus_SUCCESS )
        ; Setup parameters for call to function osal_strlen
        MOV     R2,?XSP + 0
        MOV     R3,?XSP + 1
        LCALL   `??osal_strlen::?relay`; Banked call to: osal_strlen
        ; Setup parameters for call to function AF_DataRequest
        MOV     ?V0,#0x1e
        MOV     R0,#?V0
        LCALL   ?PUSH_XSTACK_I_ONE
          CFI CFA_XSP16 add(XSP16, 41)
        MOV     ?V0,#GenericApp_TransID & 0xff
        MOV     ?V1,#(GenericApp_TransID >> 8) & 0xff
        MOV     R0,#?V0
        LCALL   ?PUSH_XSTACK_I_TWO
          CFI CFA_XSP16 add(XSP16, 43)
        MOV     A,#0x3
        LCALL   ?XSTACK_DISP100_8
        MOV     ?V0,R0
        MOV     ?V1,R1
        MOV     R0,#?V0
        LCALL   ?PUSH_XSTACK_I_TWO
          CFI CFA_XSP16 add(XSP16, 45)
        LCALL   ?Subroutine2 & 0xFFFF
??CrossCallReturnLabel_1:
        LCALL   ?PUSH_XSTACK_I_TWO
          CFI CFA_XSP16 add(XSP16, 47)
        MOV     ?V0,#0x1
        MOV     ?V1,#0x0
        MOV     R0,#?V0
        LCALL   ?PUSH_XSTACK_I_TWO
          CFI CFA_XSP16 add(XSP16, 49)
        MOV     R1,#0x0
        MOV     R4,#GenericApp_epDesc & 0xff
        MOV     R5,#(GenericApp_epDesc >> 8) & 0xff
        MOV     R2,#GenericApp_DstAddr & 0xff
        MOV     R3,#(GenericApp_DstAddr >> 8) & 0xff
        LCALL   `??AF_DataRequest::?relay`; Banked call to: AF_DataRequest
        MOV     A,#0x9
        LCALL   ?DEALLOC_XSTACK8
          CFI CFA_XSP16 add(XSP16, 40)
        MOV     A,R1
        MOV     R1,#0x0
        JNZ     ??GenericApp_SendTheMessage_2
//  893    {
//  894       // Successfully requested to be sent.
//  895       HalLcdWriteString("Podatak je poslan.(Vlaga)",0);
        ; Setup parameters for call to function HalLcdWriteString
        MOV     R2,#`?<Constant "Podatak je poslan.(Vl...">` & 0xff
        MOV     R3,#(`?<Constant "Podatak je poslan.(Vl...">` >> 8) & 0xff
        SJMP    ??GenericApp_SendTheMessage_3
//  896       //HalLcdWriteString(theMessageData,0);
//  897    }
//  898    else
//  899    {
//  900       // Error occurred in request to send.
//  901       HalLcdWriteString("Podatak nije poslan.(Vlaga)",0);
??GenericApp_SendTheMessage_2:
        ; Setup parameters for call to function HalLcdWriteString
        MOV     R2,#`?<Constant "Podatak nije poslan.(...">_1` & 0xff
        MOV     R3,#(`?<Constant "Podatak nije poslan.(...">_1` >> 8) & 0xff
??GenericApp_SendTheMessage_3:
        LCALL   `??HalLcdWriteString::?relay`; Banked call to: HalLcdWriteString
//  902    }
//  903   
//  904    //PRESSURE
//  905    if ( AF_DataRequest( &GenericApp_DstAddr, &GenericApp_epDesc,
//  906                         GENERICAPP_CLUSTERID,
//  907                         (byte)osal_strlen( pressure ) + 1,
//  908                         (byte *)&pressure,
//  909                         &GenericApp_TransID,
//  910                         AF_DISCV_ROUTE, AF_DEFAULT_RADIUS ) == afStatus_SUCCESS )
        ; Setup parameters for call to function osal_strlen
        MOV     A,#0xc
        LCALL   ?XSTACK_DISP101_8
        LCALL   `??osal_strlen::?relay`; Banked call to: osal_strlen
        ; Setup parameters for call to function AF_DataRequest
        MOV     ?V0,#0x1e
        MOV     R0,#?V0
        LCALL   ?PUSH_XSTACK_I_ONE
          CFI CFA_XSP16 add(XSP16, 41)
        MOV     ?V0,#GenericApp_TransID & 0xff
        MOV     ?V1,#(GenericApp_TransID >> 8) & 0xff
        MOV     R0,#?V0
        LCALL   ?PUSH_XSTACK_I_TWO
          CFI CFA_XSP16 add(XSP16, 43)
        MOV     A,#0xf
        LCALL   ?XSTACK_DISP100_8
        MOV     ?V0,R0
        MOV     ?V1,R1
        MOV     R0,#?V0
        LCALL   ?PUSH_XSTACK_I_TWO
          CFI CFA_XSP16 add(XSP16, 45)
        LCALL   ?Subroutine2 & 0xFFFF
??CrossCallReturnLabel_2:
        LCALL   ?PUSH_XSTACK_I_TWO
          CFI CFA_XSP16 add(XSP16, 47)
        MOV     ?V0,#0x1
        MOV     ?V1,#0x0
        MOV     R0,#?V0
        LCALL   ?PUSH_XSTACK_I_TWO
          CFI CFA_XSP16 add(XSP16, 49)
        MOV     R1,#0x0
        MOV     R4,#GenericApp_epDesc & 0xff
        MOV     R5,#(GenericApp_epDesc >> 8) & 0xff
        MOV     R2,#GenericApp_DstAddr & 0xff
        MOV     R3,#(GenericApp_DstAddr >> 8) & 0xff
        LCALL   `??AF_DataRequest::?relay`; Banked call to: AF_DataRequest
        MOV     A,#0x9
        LCALL   ?DEALLOC_XSTACK8
          CFI CFA_XSP16 add(XSP16, 40)
        MOV     A,R1
        MOV     R1,#0x0
        JNZ     ??GenericApp_SendTheMessage_4
//  911    {
//  912       // Successfully requested to be sent.
//  913       HalLcdWriteString("Podatak je poslan.(Pritisak)",0);
        ; Setup parameters for call to function HalLcdWriteString
        MOV     R2,#`?<Constant "Podatak je poslan.(Pr...">` & 0xff
        MOV     R3,#(`?<Constant "Podatak je poslan.(Pr...">` >> 8) & 0xff
        SJMP    ??GenericApp_SendTheMessage_5
//  914       //HalLcdWriteString(theMessageData,0);
//  915    }
//  916    else
//  917    {
//  918       // Error occurred in request to send.
//  919       HalLcdWriteString("Podatak nije poslan.(Pritisak)",0);
??GenericApp_SendTheMessage_4:
        ; Setup parameters for call to function HalLcdWriteString
        MOV     R2,#`?<Constant "Podatak nije poslan.(...">_2` & 0xff
        MOV     R3,#(`?<Constant "Podatak nije poslan.(...">_2` >> 8) & 0xff
??GenericApp_SendTheMessage_5:
        LCALL   `??HalLcdWriteString::?relay`; Banked call to: HalLcdWriteString
//  920    }
//  921   
//  922   
//  923 #endif  
//  924 //*****************************************************************************
//  925 //End BME280
//  926 //*****************************************************************************
//  927 
//  928    
//  929    
//  930    
//  931    
//  932 //*****************************************************************************
//  933 //Motion detection
//  934 //*****************************************************************************
//  935 /* 
//  936 #if MOTION_SENSOR
//  937 
//  938 
//  939   if ( motionDetection() )
//  940   {
//  941     // Successfully requested to be sent.
//  942     //HalLcdWriteString("Podatak je poslan.",0);
//  943     AF_DataRequest( &GenericApp_DstAddr, &GenericApp_epDesc,
//  944                        GENERICAPP_CLUSTERID,
//  945                        2,                                                       
//  946                        (byte *)&motionDetected,
//  947                        &GenericApp_TransID,
//  948                        AF_DISCV_ROUTE, AF_DEFAULT_RADIUS );
//  949     
//  950     HalLcdWriteString("Pokret je detektovan.",0);
//  951     
//  952   }
//  953   else
//  954   {
//  955     
//  956     // Error occurred in request to send.
//  957     // HalLcdWriteString("Podatak nije poslan.",0);
//  958     AF_DataRequest( &GenericApp_DstAddr, &GenericApp_epDesc,
//  959                        GENERICAPP_CLUSTERID,
//  960                        2,                                                       
//  961                        (byte *)&motionNotDetected,
//  962                        &GenericApp_TransID,
//  963                        AF_DISCV_ROUTE, AF_DEFAULT_RADIUS );
//  964   
//  965     HalLcdWriteString("Nema kretanja.",0);
//  966     
//  967   }
//  968   
//  969 #endif   
//  970    */
//  971 //*****************************************************************************
//  972 //Motion detection end
//  973 //*****************************************************************************  
//  974 
//  975 
//  976   
//  977   
//  978 //*****************************************************************************
//  979 //   OPTICAL_SENSOR
//  980 //*****************************************************************************    
//  981 #if OPTICAL_SENSOR
//  982   
//  983   optDat = HalAdcRead(HAL_ADC_CHANNEL_1,HAL_ADC_RESOLUTION_12);
//  984   char jacina;
//  985   
//  986   if( optDat < 400)
//  987   {
//  988      theOpticalData[1] = '1';
//  989   }
//  990   else if( optDat < 800)
//  991   {
//  992     theOpticalData[1] = '2';
//  993   }
//  994   else if( optDat < 1200)
//  995   {
//  996     theOpticalData[1] = '3';
//  997   }
//  998   else
//  999   {
// 1000     
// 1001     theOpticalData[1] = '4';
// 1002     
// 1003   }
// 1004     
// 1005   theOpticalData[0]='O';
// 1006   
// 1007  //  for(i = 0;i<4;i++)
// 1008    //{
// 1009    //     theOpticalData[3-i] =  optDat % 10  + '0';
// 1010     //       optDat /= 10;
// 1011    //}
// 1012   
// 1013    theOpticalData[2] = '\0';
// 1014  
// 1015   
// 1016   
// 1017    if ( AF_DataRequest( &GenericApp_DstAddr, &GenericApp_epDesc,
// 1018                         GENERICAPP_CLUSTERID,
// 1019                         3,
// 1020                         (byte *)&theOpticalData,
// 1021                         &GenericApp_TransID,
// 1022                         AF_DISCV_ROUTE, AF_DEFAULT_RADIUS ) == afStatus_SUCCESS )
// 1023    {
// 1024       // Successfully requested to be sent.
// 1025       HalLcdWriteString("Podatak je poslan.",0);
// 1026      // HalLcdWriteString(theOpticalData,0);
// 1027    }
// 1028    else
// 1029    {
// 1030       // Error occurred in request to send.
// 1031       HalLcdWriteString("Podatak nije poslan.",0);
// 1032    }
// 1033 #endif  
// 1034 //*****************************************************************************
// 1035 //   OPTICAL_SENSOR END
// 1036 //*****************************************************************************     
// 1037    
// 1038    
// 1039    
// 1040    
// 1041 //****************************************************************************  
// 1042 //    MAGNETIC_SENSOR
// 1043 //****************************************************************************
// 1044 
// 1045    /*
// 1046 #if MAGNETIC_SENSOR
// 1047 
// 1048 
// 1049   if ( !magneticSwitch_DoorDetection() )
// 1050   {
// 1051     // Successfully requested to be sent.
// 1052     //HalLcdWriteString("Podatak je poslan.",0);
// 1053     AF_DataRequest( &GenericApp_DstAddr, &GenericApp_epDesc,
// 1054                        GENERICAPP_CLUSTERID,
// 1055                        3,                                                       
// 1056                        (byte *)&doorOpened,
// 1057                        &GenericApp_TransID,
// 1058                        AF_DISCV_ROUTE, AF_DEFAULT_RADIUS );
// 1059     
// 1060     HalLcdWriteString("Vrata su otvorena.",0);
// 1061     
// 1062   }
// 1063   else
// 1064   {
// 1065     
// 1066     // Error occurred in request to send.
// 1067     // HalLcdWriteString("Podatak nije poslan.",0);
// 1068     AF_DataRequest( &GenericApp_DstAddr, &GenericApp_epDesc,
// 1069                        GENERICAPP_CLUSTERID,
// 1070                        3,                                                       
// 1071                        (byte *)&doorClosed,
// 1072                        &GenericApp_TransID,
// 1073                        AF_DISCV_ROUTE, AF_DEFAULT_RADIUS );
// 1074   
// 1075     HalLcdWriteString("Vrata su zatvorena.",0);
// 1076     
// 1077   }
// 1078   
// 1079 #endif 
// 1080    
// 1081    */
// 1082 //****************************************************************************  
// 1083 //    MAGNETIC_SENSOR END
// 1084 //****************************************************************************  
// 1085   
// 1086   
// 1087   
// 1088 //****************************************************************************  
// 1089 //    HELOO_WORLD
// 1090 //****************************************************************************
// 1091 #if HELLO_WORLD
// 1092 
// 1093   
// 1094   
// 1095    if ( AF_DataRequest( &GenericApp_DstAddr, &GenericApp_epDesc,
// 1096                         GENERICAPP_CLUSTERID,
// 1097                         (byte)osal_strlen( theMessageData ) + 1,
// 1098                         (byte *)&theMessageData,
// 1099                         &GenericApp_TransID,
// 1100                         AF_DISCV_ROUTE, AF_DEFAULT_RADIUS ) == afStatus_SUCCESS )
// 1101    {
// 1102       // Successfully requested to be sent.
// 1103       HalLcdWriteString("Podatak je poslan.",0);
// 1104       //HalLcdWriteString(theMessageData,0);
// 1105    }
// 1106    else
// 1107    {
// 1108       // Error occurred in request to send.
// 1109       HalLcdWriteString("Podatak nije poslan.",0);
// 1110    }
// 1111  
// 1112 
// 1113 #endif
// 1114 }
        MOV     A,#0x18
        LCALL   ?DEALLOC_XSTACK8
          CFI CFA_XSP16 add(XSP16, 16)
        MOV     R7,#0x8
        LJMP    ?BANKED_LEAVE_XDATA
          CFI EndBlock cfiBlock5

        RSEG BANKED_CODE:HUGECODE:NOROOT(0)
?Subroutine2:
          CFI Block cfiCond6 Using cfiCommon0
          CFI Function GenericApp_SendTheMessage
          CFI Conditional ??CrossCallReturnLabel_0
          CFI R6 load(1, XDATA, add(CFA_XSP16, literal(-16)))
          CFI VB load(1, XDATA, add(CFA_XSP16, literal(-15)))
          CFI V0 load(1, XDATA, add(CFA_XSP16, literal(-14)))
          CFI V1 load(1, XDATA, add(CFA_XSP16, literal(-13)))
          CFI V2 load(1, XDATA, add(CFA_XSP16, literal(-12)))
          CFI V3 load(1, XDATA, add(CFA_XSP16, literal(-11)))
          CFI V4 load(1, XDATA, add(CFA_XSP16, literal(-10)))
          CFI V5 load(1, XDATA, add(CFA_XSP16, literal(-9)))
          CFI V6 load(1, XDATA, add(CFA_XSP16, literal(-8)))
          CFI V7 load(1, XDATA, add(CFA_XSP16, literal(-7)))
          CFI R7 load(1, XDATA, add(CFA_XSP16, literal(-6)))
          CFI ?RET_LOW load(1, XDATA, add(CFA_XSP16, literal(-5)))
          CFI ?RET_HIGH load(1, XDATA, add(CFA_XSP16, literal(-4)))
          CFI ?BRET_EXT load(1, XDATA, add(CFA_XSP16, literal(-3)))
          CFI DPL0 load(1, XDATA, add(CFA_XSP16, literal(-2)))
          CFI DPH0 load(1, XDATA, add(CFA_XSP16, literal(-1)))
          CFI CFA_SP SP+-2
          CFI CFA_XSP16 add(XSP16, 45)
          CFI Block cfiCond7 Using cfiCommon0
          CFI (cfiCond7) Function GenericApp_SendTheMessage
          CFI (cfiCond7) Conditional ??CrossCallReturnLabel_1
          CFI (cfiCond7) R6 load(1, XDATA, add(CFA_XSP16, literal(-16)))
          CFI (cfiCond7) VB load(1, XDATA, add(CFA_XSP16, literal(-15)))
          CFI (cfiCond7) V0 load(1, XDATA, add(CFA_XSP16, literal(-14)))
          CFI (cfiCond7) V1 load(1, XDATA, add(CFA_XSP16, literal(-13)))
          CFI (cfiCond7) V2 load(1, XDATA, add(CFA_XSP16, literal(-12)))
          CFI (cfiCond7) V3 load(1, XDATA, add(CFA_XSP16, literal(-11)))
          CFI (cfiCond7) V4 load(1, XDATA, add(CFA_XSP16, literal(-10)))
          CFI (cfiCond7) V5 load(1, XDATA, add(CFA_XSP16, literal(-9)))
          CFI (cfiCond7) V6 load(1, XDATA, add(CFA_XSP16, literal(-8)))
          CFI (cfiCond7) V7 load(1, XDATA, add(CFA_XSP16, literal(-7)))
          CFI (cfiCond7) R7 load(1, XDATA, add(CFA_XSP16, literal(-6)))
          CFI (cfiCond7) ?RET_LOW load(1, XDATA, add(CFA_XSP16, literal(-5)))
          CFI (cfiCond7) ?RET_HIGH load(1, XDATA, add(CFA_XSP16, literal(-4)))
          CFI (cfiCond7) ?BRET_EXT load(1, XDATA, add(CFA_XSP16, literal(-3)))
          CFI (cfiCond7) DPL0 load(1, XDATA, add(CFA_XSP16, literal(-2)))
          CFI (cfiCond7) DPH0 load(1, XDATA, add(CFA_XSP16, literal(-1)))
          CFI (cfiCond7) CFA_SP SP+-2
          CFI (cfiCond7) CFA_XSP16 add(XSP16, 45)
          CFI Block cfiCond8 Using cfiCommon0
          CFI (cfiCond8) Function GenericApp_SendTheMessage
          CFI (cfiCond8) Conditional ??CrossCallReturnLabel_2
          CFI (cfiCond8) R6 load(1, XDATA, add(CFA_XSP16, literal(-16)))
          CFI (cfiCond8) VB load(1, XDATA, add(CFA_XSP16, literal(-15)))
          CFI (cfiCond8) V0 load(1, XDATA, add(CFA_XSP16, literal(-14)))
          CFI (cfiCond8) V1 load(1, XDATA, add(CFA_XSP16, literal(-13)))
          CFI (cfiCond8) V2 load(1, XDATA, add(CFA_XSP16, literal(-12)))
          CFI (cfiCond8) V3 load(1, XDATA, add(CFA_XSP16, literal(-11)))
          CFI (cfiCond8) V4 load(1, XDATA, add(CFA_XSP16, literal(-10)))
          CFI (cfiCond8) V5 load(1, XDATA, add(CFA_XSP16, literal(-9)))
          CFI (cfiCond8) V6 load(1, XDATA, add(CFA_XSP16, literal(-8)))
          CFI (cfiCond8) V7 load(1, XDATA, add(CFA_XSP16, literal(-7)))
          CFI (cfiCond8) R7 load(1, XDATA, add(CFA_XSP16, literal(-6)))
          CFI (cfiCond8) ?RET_LOW load(1, XDATA, add(CFA_XSP16, literal(-5)))
          CFI (cfiCond8) ?RET_HIGH load(1, XDATA, add(CFA_XSP16, literal(-4)))
          CFI (cfiCond8) ?BRET_EXT load(1, XDATA, add(CFA_XSP16, literal(-3)))
          CFI (cfiCond8) DPL0 load(1, XDATA, add(CFA_XSP16, literal(-2)))
          CFI (cfiCond8) DPH0 load(1, XDATA, add(CFA_XSP16, literal(-1)))
          CFI (cfiCond8) CFA_SP SP+-2
          CFI (cfiCond8) CFA_XSP16 add(XSP16, 45)
          CFI Block cfiPicker9 Using cfiCommon1
          CFI (cfiPicker9) NoFunction
          CFI (cfiPicker9) Picker
        MOV     A,R2
        ADD     A,#0x1
        MOV     ?V0,A
        CLR     A
        ADDC    A,#0x0
        MOV     ?V1,A
        MOV     R0,#?V0
        RET
          CFI EndBlock cfiCond6
          CFI EndBlock cfiCond7
          CFI EndBlock cfiCond8
          CFI EndBlock cfiPicker9
// 1115 //****************************************************************************  
// 1116 //    HELOO_WORLD END
// 1117 //****************************************************************************
// 1118 
// 1119 
// 1120 
// 1121 
// 1122 #if defined( IAR_ARMCM3_LM )
// 1123 /*********************************************************************
// 1124  * @fn      GenericApp_ProcessRtosMessage
// 1125  *
// 1126  * @brief   Receive message from RTOS queue, send response back.
// 1127  *
// 1128  * @param   none
// 1129  *
// 1130  * @return  none
// 1131  */
// 1132 static void GenericApp_ProcessRtosMessage( void )
// 1133 {
// 1134   osalQueue_t inMsg;
// 1135 
// 1136   if ( osal_queue_receive( OsalQueue, &inMsg, 0 ) == pdPASS )
// 1137   {
// 1138     uint8 cmndId = inMsg.cmnd;
// 1139     uint32 counter = osal_build_uint32( inMsg.cbuf, 4 );
// 1140 
// 1141     switch ( cmndId )
// 1142     {
// 1143       case CMD_INCR:
// 1144         counter += 1;  /* Increment the incoming counter */
// 1145                        /* Intentionally fall through next case */
// 1146 
// 1147       case CMD_ECHO:
// 1148       {
// 1149         userQueue_t outMsg;
// 1150 
// 1151         outMsg.resp = RSP_CODE | cmndId;  /* Response ID */
// 1152         osal_buffer_uint32( outMsg.rbuf, counter );    /* Increment counter */
// 1153         osal_queue_send( UserQueue1, &outMsg, 0 );  /* Send back to UserTask */
// 1154         break;
// 1155       }
// 1156 
// 1157       default:
// 1158         break;  /* Ignore unknown command */
// 1159     }
// 1160   }
// 1161 }
// 1162 #endif
// 1163 
// 1164 /*********************************************************************
// 1165  * @fn      magneticSwitchInit()
// 1166  *
// 1167  * @brief   Initialize pins for magnetic switch
// 1168  *
// 1169  * @param   none
// 1170  *
// 1171  * @return  none
// 1172  */

        RSEG BANKED_CODE:HUGECODE:NOROOT(0)
// 1173 void magneticSwitchInit(void)
magneticSwitchInit:
        CODE
// 1174 {
        ; Saved register size: 0
        ; Auto size: 0
// 1175  // Set GPIO function for P1_3  
// 1176  P1SEL &= 0xFC;
        REQUIRE ?Subroutine1
        REQUIRE P1SEL
        REQUIRE P1DIR
        REQUIRE P2INP
        ; // Fall through to label ?Subroutine1

        RSEG BANKED_CODE:HUGECODE:NOROOT(0)
?Subroutine1:
          CFI Block cfiBlock10 Using cfiCommon0
          CFI NoFunction
        ANL     0xf4,#0xfc
// 1177  
// 1178  // Set inputs on P0_0
// 1179  P1DIR &= 0xFC;
        ANL     0xfe,#0xfc
// 1180  
// 1181  // Set pulldown for port 0 pins
// 1182  P2INP |= 0x40;
        ORL     0xf7,#0x40
// 1183   
// 1184 }
        LJMP    ?BRET
          CFI EndBlock cfiBlock10
// 1185 
// 1186 /*********************************************************************
// 1187  * @fn      magneticSwitch_DoorDetection()
// 1188  *
// 1189  * @brief   Detects if door are closed/opened
// 1190  *
// 1191  * @param   none
// 1192  *
// 1193  * @return  1 if closed, 0 if opened
// 1194  */

        RSEG BANKED_CODE:HUGECODE:NOROOT(0)
// 1195 uint8 magneticSwitch_DoorDetection()
magneticSwitch_DoorDetection:
          CFI Block cfiBlock11 Using cfiCommon0
          CFI Function magneticSwitch_DoorDetection
        CODE
// 1196 {
        ; Saved register size: 0
        ; Auto size: 0
// 1197     
// 1198  if(TRUE == DOOR_CLOSED_DETECTION) 
        MOV     C,0xa0.0
        JNC     ??magneticSwitch_DoorDetection_0
// 1199  { 
// 1200     return 0;
        MOV     R1,#0x0
        SJMP    ??magneticSwitch_DoorDetection_1
// 1201  }
// 1202  else
// 1203  {
// 1204     return 1;
??magneticSwitch_DoorDetection_0:
        MOV     R1,#0x1
??magneticSwitch_DoorDetection_1:
        LJMP    ?BRET
          CFI EndBlock cfiBlock11
        REQUIRE _A_P2
// 1205  }
// 1206  
// 1207 } 
// 1208 /*********************************************************************
// 1209  * @fn      motionInit()
// 1210  *
// 1211  * @brief   Initialize pins for motion sensor
// 1212  *
// 1213  * @param   none
// 1214  *
// 1215  * @return  none
// 1216  */

        RSEG BANKED_CODE:HUGECODE:NOROOT(0)
// 1217 void motionInit(void)
motionInit:
          CFI Block cfiBlock12 Using cfiCommon0
          CFI Function motionInit
        CODE
// 1218 {
        ; Saved register size: 0
        ; Auto size: 0
// 1219  // Set GPIO function for P1_3  
// 1220  P1SEL &= 0xFC;
        SJMP    ?Subroutine1
          CFI EndBlock cfiBlock12
        REQUIRE P1SEL
        REQUIRE P1DIR
        REQUIRE P2INP
// 1221  
// 1222  // Set inputs on P0_0
// 1223  P1DIR &= 0xFC;
// 1224  
// 1225  // Set pulldown for port 0 pins
// 1226  P2INP |= 0x40;
// 1227   
// 1228 }
// 1229 /*********************************************************************
// 1230  * @fn      motionDetection()
// 1231  *
// 1232  * @brief   Detects there is motion or not
// 1233  *
// 1234  * @param   none
// 1235  *
// 1236  * @return  1 if motion detected, 0 if not
// 1237  */

        RSEG BANKED_CODE:HUGECODE:NOROOT(0)
// 1238 uint8 motionDetection()
motionDetection:
          CFI Block cfiBlock13 Using cfiCommon0
          CFI Function motionDetection
        CODE
// 1239 {
        ; Saved register size: 0
        ; Auto size: 0
// 1240     
// 1241         if(TRUE == P0_1) 
        MOV     C,0x80.1
        JNC     ??motionDetection_0
// 1242         { 
// 1243           return 1;
        MOV     R1,#0x1
        SJMP    ??motionDetection_1
// 1244         }
// 1245         else
// 1246         {
// 1247           return 0;
??motionDetection_0:
        MOV     R1,#0x0
??motionDetection_1:
        LJMP    ?BRET
          CFI EndBlock cfiBlock13
        REQUIRE _A_P0
// 1248         }
// 1249  
// 1250 }  

        RSEG XDATA_ID:CODE:NOROOT(0)
`?<Initializer for coin>`:
        DATA8
        DB 1

        RSEG XDATA_ID:CODE:NOROOT(0)
`?<Initializer for keyPressSW4>`:
        DATA8
        DB 1

        RSEG XDATA_ID:CODE:NOROOT(0)
`?<Initializer for txMsgDelay>`:
        DATA32
        DD 5000

        RSEG BANK_RELAYS:CODE:REORDER:NOROOT(0)
`??GenericApp_Init::?relay`:
        CODE
        LCALL   ?BDISPATCH
        DATA24
        DC24    GenericApp_Init

        RSEG BANK_RELAYS:CODE:REORDER:NOROOT(0)
`??GenericApp_ProcessEvent::?relay`:
        CODE
        LCALL   ?BDISPATCH
        DATA24
        DC24    GenericApp_ProcessEvent

        RSEG BANK_RELAYS:CODE:REORDER:NOROOT(0)
`??MotionSensor_SendTheMessage::?relay`:
        CODE
        LCALL   ?BDISPATCH
        DATA24
        DC24    MotionSensor_SendTheMessage

        RSEG BANK_RELAYS:CODE:REORDER:NOROOT(0)
`??MagneticSwitch_SendTheMessage::?relay`:
        CODE
        LCALL   ?BDISPATCH
        DATA24
        DC24    MagneticSwitch_SendTheMessage

        RSEG BANK_RELAYS:CODE:REORDER:NOROOT(0)
`??GenericApp_SendTheMessage::?relay`:
        CODE
        LCALL   ?BDISPATCH
        DATA24
        DC24    GenericApp_SendTheMessage

        RSEG BANK_RELAYS:CODE:REORDER:NOROOT(0)
`??magneticSwitchInit::?relay`:
        CODE
        LCALL   ?BDISPATCH
        DATA24
        DC24    magneticSwitchInit

        RSEG BANK_RELAYS:CODE:REORDER:NOROOT(0)
`??magneticSwitch_DoorDetection::?relay`:
        CODE
        LCALL   ?BDISPATCH
        DATA24
        DC24    magneticSwitch_DoorDetection

        RSEG BANK_RELAYS:CODE:REORDER:NOROOT(0)
`??motionInit::?relay`:
        CODE
        LCALL   ?BDISPATCH
        DATA24
        DC24    motionInit

        RSEG BANK_RELAYS:CODE:REORDER:NOROOT(0)
`??motionDetection::?relay`:
        CODE
        LCALL   ?BDISPATCH
        DATA24
        DC24    motionDetection

        RSEG XDATA_ROM_C:CONST:REORDER:NOROOT(0)
        DATA8
`?<Constant "GenericApp">`:
        DB "GenericApp"

        RSEG XDATA_ROM_C:CONST:REORDER:NOROOT(0)
        DATA8
`?<Constant "---------------------...">`:
        DB "--------------------------------"

        RSEG XDATA_ROM_C:CONST:REORDER:NOROOT(0)
        DATA8
`?<Constant "Received data:">`:
        DB "Received data:"

        RSEG XDATA_ROM_C:CONST:REORDER:NOROOT(0)
        DATA8
`?<Constant "">`:
        DB ""

        RSEG XDATA_ROM_C:CONST:REORDER:NOROOT(0)
        DATA8
`?<Constant "Podatak nije primljen.">`:
        DB "Podatak nije primljen."

        RSEG XDATA_ROM_C:CONST:REORDER:NOROOT(0)
        DATA16
`?<Constant {77, 49}>`:
        DATA8
        DB 77
        DB 49

        RSEG XDATA_ROM_C:CONST:REORDER:NOROOT(0)
        DATA8
`?<Constant "Pokret je detektovan.">`:
        DB "Pokret je detektovan."

        RSEG XDATA_ROM_C:CONST:REORDER:NOROOT(0)
        DATA16
`?<Constant {68, 49}>`:
        DATA8
        DB 68
        DB 49

        RSEG XDATA_ROM_C:CONST:REORDER:NOROOT(0)
        DATA16
`?<Constant {68, 48}>`:
        DATA8
        DB 68
        DB 48

        RSEG XDATA_ROM_C:CONST:REORDER:NOROOT(0)
        DATA8
`?<Constant "Otvorena vrata.">`:
        DB "Otvorena vrata."

        RSEG XDATA_ROM_C:CONST:REORDER:NOROOT(0)
        DATA8
`?<Constant "Zatvorena vrata.">`:
        DB "Zatvorena vrata."

        RSEG XDATA_ROM_C:CONST:REORDER:NOROOT(0)
        DATA32
`?<Constant "T%d">`:
        DB "T%d"

        RSEG XDATA_ROM_C:CONST:REORDER:NOROOT(0)
        DATA32
`?<Constant "H%d">`:
        DB "H%d"

        RSEG XDATA_ROM_C:CONST:REORDER:NOROOT(0)
        DATA32
`?<Constant "P%d">`:
        DB "P%d"

        RSEG XDATA_ROM_C:CONST:REORDER:NOROOT(0)
        DATA8
`?<Constant "Podatak je poslan.(Te...">`:
        DB "Podatak je poslan.(Temperatura)"

        RSEG XDATA_ROM_C:CONST:REORDER:NOROOT(0)
        DATA8
`?<Constant "Podatak nije poslan.(...">`:
        DB "Podatak nije poslan.(Temperatura)"

        RSEG XDATA_ROM_C:CONST:REORDER:NOROOT(0)
        DATA8
`?<Constant "Podatak je poslan.(Vl...">`:
        DB "Podatak je poslan.(Vlaga)"

        RSEG XDATA_ROM_C:CONST:REORDER:NOROOT(0)
        DATA8
`?<Constant "Podatak nije poslan.(...">_1`:
        DB "Podatak nije poslan.(Vlaga)"

        RSEG XDATA_ROM_C:CONST:REORDER:NOROOT(0)
        DATA8
`?<Constant "Podatak je poslan.(Pr...">`:
        DB "Podatak je poslan.(Pritisak)"

        RSEG XDATA_ROM_C:CONST:REORDER:NOROOT(0)
        DATA8
`?<Constant "Podatak nije poslan.(...">_2`:
        DB "Podatak nije poslan.(Pritisak)"

        RSEG XDATA_ROM_C:CONST:REORDER:NOROOT(0)
        DATA32
__Constant_fa0:
        DD 4000

        RSEG XDATA_ROM_C:CONST:REORDER:NOROOT(0)
        DATA32
__Constant_64:
        DD 100

        END
// 1251 
// 1252 
// 1253 
// 1254 /*********************************************************************
// 1255  */
// 
// 1 513 bytes in segment BANKED_CODE
//    54 bytes in segment BANK_RELAYS
//     5 bytes in segment SFR_AN
//     6 bytes in segment XDATA_I
//     6 bytes in segment XDATA_ID
//   358 bytes in segment XDATA_ROM_C
//   115 bytes in segment XDATA_Z
// 
//    60 bytes of CODE     memory
//   350 bytes of CONST    memory (+ 8 bytes shared)
//     0 bytes of DATA     memory (+ 5 bytes shared)
// 1 513 bytes of HUGECODE memory
//   121 bytes of XDATA    memory
//
//Errors: none
//Warnings: 19
