///////////////////////////////////////////////////////////////////////////////
//
// IAR C/C++ Compiler V9.30.3.3983 for 8051               06/Apr/2017  12:17:04
// Copyright 2004-2016 IAR Systems AB.
// Evaluation license - IAR Embedded Workbench for 8051, Evaluation version 9.30
//
//    Core               =  plain
//    Code model         =  banked
//    Data model         =  large
//    Calling convention =  xdata reentrant
//    Constant location  =  data_rom
//    Dptr setup         =  1,16
//                          
//    Source file        =  
//        C:\Users\bsavanovic\Desktop\EndDevice\ZigBeeEndDevice\Components\hal\target\CC2530EB\hal_lcd.c
//    Command line       =  
//        -f
//        C:\Users\bsavanovic\Desktop\EndDevice\ZigBeeEndDevice\Projects\zstack\Samples\GenericApp\CC2530DB\..\..\..\Tools\CC2530DB\f8wEndev.cfg
//        (-DCPU32MHZ -DROOT=__near_func -DMAC_CFG_TX_DATA_MAX=3
//        -DMAC_CFG_TX_MAX=6 -DMAC_CFG_RX_MAX=3) -f
//        C:\Users\bsavanovic\Desktop\EndDevice\ZigBeeEndDevice\Projects\zstack\Samples\GenericApp\CC2530DB\..\..\..\Tools\CC2530DB\f8wConfig.cfg
//        (-DZIGBEEPRO -DSECURE=1 -DZG_SECURE_DYNAMIC=0 -DREFLECTOR
//        -DDEFAULT_CHANLIST=0x00000800 -DZDAPP_CONFIG_PAN_ID=0x0422
//        -DNWK_START_DELAY=100 -DEXTENDED_JOINING_RANDOM_MASK=0x007F
//        -DBEACON_REQUEST_DELAY=100 -DBEACON_REQ_DELAY_MASK=0x00FF
//        -DLINK_STATUS_JITTER_MASK=0x007F -DROUTE_EXPIRY_TIME=30
//        -DAPSC_ACK_WAIT_DURATION_POLLED=3000 -DNWK_INDIRECT_MSG_TIMEOUT=7
//        -DMAX_RREQ_ENTRIES=8 -DAPSC_MAX_FRAME_RETRIES=3
//        -DNWK_MAX_DATA_RETRIES=2 -DMAX_POLL_FAILURE_RETRIES=2 -DMAX_BCAST=9
//        -DAPS_MAX_GROUPS=16 -DMAX_RTG_ENTRIES=40 -DNWK_MAX_BINDING_ENTRIES=4
//        -DMAX_BINDING_CLUSTER_IDS=4 "-DDEFAULT_KEY={0x01, 0x03, 0x05, 0x07,
//        0x09, 0x0B, 0x0D, 0x0F, 0x00, 0x02, 0x04, 0x06, 0x08, 0x0A, 0x0C,
//        0x0D}" -DMAC_MAX_FRAME_SIZE=116 -DZDNWKMGR_MIN_TRANSMISSIONS=20
//        "-DCONST=const __code" -DGENERIC=__generic -DRFD_RCVC_ALWAYS_ON=FALSE
//        -DPOLL_RATE=1000 -DQUEUED_POLL_RATE=100 -DRESPONSE_POLL_RATE=100)
//        -DREJOIN_POLL_RATE=440
//        C:\Users\bsavanovic\Desktop\EndDevice\ZigBeeEndDevice\Components\hal\target\CC2530EB\hal_lcd.c
//        -D NWK_AUTO_POLL -D ZTOOL_P1 -D MT_TASK -D MT_SYS_FUNC -D MT_ZDO_FUNC
//        -D LCD_SUPPORTED=DEBUG -D xPOWER_SAVING -lC
//        C:\Users\bsavanovic\Desktop\EndDevice\ZigBeeEndDevice\Projects\zstack\Samples\GenericApp\CC2530DB\EndDeviceEB\List
//        -lA
//        C:\Users\bsavanovic\Desktop\EndDevice\ZigBeeEndDevice\Projects\zstack\Samples\GenericApp\CC2530DB\EndDeviceEB\List
//        --diag_suppress Pe001,Pa010 -o
//        C:\Users\bsavanovic\Desktop\EndDevice\ZigBeeEndDevice\Projects\zstack\Samples\GenericApp\CC2530DB\EndDeviceEB\Obj
//        -e --no_code_motion --debug --core=plain --dptr=16,1
//        --data_model=large --code_model=banked
//        --calling_convention=xdata_reentrant --place_constants=data_rom
//        --nr_virtual_regs 16 -I
//        C:\Users\bsavanovic\Desktop\EndDevice\ZigBeeEndDevice\Projects\zstack\Samples\GenericApp\CC2530DB\
//        -I
//        C:\Users\bsavanovic\Desktop\EndDevice\ZigBeeEndDevice\Projects\zstack\Samples\GenericApp\CC2530DB\..\Source\
//        -I
//        C:\Users\bsavanovic\Desktop\EndDevice\ZigBeeEndDevice\Projects\zstack\Samples\GenericApp\CC2530DB\..\..\..\ZMain\TI2530DB\
//        -I
//        C:\Users\bsavanovic\Desktop\EndDevice\ZigBeeEndDevice\Projects\zstack\Samples\GenericApp\CC2530DB\..\..\..\..\..\Components\hal\include\
//        -I
//        C:\Users\bsavanovic\Desktop\EndDevice\ZigBeeEndDevice\Projects\zstack\Samples\GenericApp\CC2530DB\..\..\..\..\..\Components\hal\target\CC2530EB\
//        -I
//        C:\Users\bsavanovic\Desktop\EndDevice\ZigBeeEndDevice\Projects\zstack\Samples\GenericApp\CC2530DB\..\..\..\..\..\Components\mac\include\
//        -I
//        C:\Users\bsavanovic\Desktop\EndDevice\ZigBeeEndDevice\Projects\zstack\Samples\GenericApp\CC2530DB\..\..\..\..\..\Components\mac\high_level\
//        -I
//        C:\Users\bsavanovic\Desktop\EndDevice\ZigBeeEndDevice\Projects\zstack\Samples\GenericApp\CC2530DB\..\..\..\..\..\Components\mac\low_level\srf04\
//        -I
//        C:\Users\bsavanovic\Desktop\EndDevice\ZigBeeEndDevice\Projects\zstack\Samples\GenericApp\CC2530DB\..\..\..\..\..\Components\mac\low_level\srf04\single_chip\
//        -I
//        C:\Users\bsavanovic\Desktop\EndDevice\ZigBeeEndDevice\Projects\zstack\Samples\GenericApp\CC2530DB\..\..\..\..\..\Components\mt\
//        -I
//        C:\Users\bsavanovic\Desktop\EndDevice\ZigBeeEndDevice\Projects\zstack\Samples\GenericApp\CC2530DB\..\..\..\..\..\Components\osal\include\
//        -I
//        C:\Users\bsavanovic\Desktop\EndDevice\ZigBeeEndDevice\Projects\zstack\Samples\GenericApp\CC2530DB\..\..\..\..\..\Components\services\saddr\
//        -I
//        C:\Users\bsavanovic\Desktop\EndDevice\ZigBeeEndDevice\Projects\zstack\Samples\GenericApp\CC2530DB\..\..\..\..\..\Components\services\sdata\
//        -I
//        C:\Users\bsavanovic\Desktop\EndDevice\ZigBeeEndDevice\Projects\zstack\Samples\GenericApp\CC2530DB\..\..\..\..\..\Components\stack\af\
//        -I
//        C:\Users\bsavanovic\Desktop\EndDevice\ZigBeeEndDevice\Projects\zstack\Samples\GenericApp\CC2530DB\..\..\..\..\..\Components\stack\nwk\
//        -I
//        C:\Users\bsavanovic\Desktop\EndDevice\ZigBeeEndDevice\Projects\zstack\Samples\GenericApp\CC2530DB\..\..\..\..\..\Components\stack\sapi\
//        -I
//        C:\Users\bsavanovic\Desktop\EndDevice\ZigBeeEndDevice\Projects\zstack\Samples\GenericApp\CC2530DB\..\..\..\..\..\Components\stack\sec\
//        -I
//        C:\Users\bsavanovic\Desktop\EndDevice\ZigBeeEndDevice\Projects\zstack\Samples\GenericApp\CC2530DB\..\..\..\..\..\Components\stack\sys\
//        -I
//        C:\Users\bsavanovic\Desktop\EndDevice\ZigBeeEndDevice\Projects\zstack\Samples\GenericApp\CC2530DB\..\..\..\..\..\Components\stack\zdo\
//        -I
//        C:\Users\bsavanovic\Desktop\EndDevice\ZigBeeEndDevice\Projects\zstack\Samples\GenericApp\CC2530DB\..\..\..\..\..\Components\zmac\
//        -I
//        C:\Users\bsavanovic\Desktop\EndDevice\ZigBeeEndDevice\Projects\zstack\Samples\GenericApp\CC2530DB\..\..\..\..\..\Components\zmac\f8w\
//        -Ohz --require_prototypes
//    List file          =  
//        C:\Users\bsavanovic\Desktop\EndDevice\ZigBeeEndDevice\Projects\zstack\Samples\GenericApp\CC2530DB\EndDeviceEB\List\hal_lcd.s51
//
///////////////////////////////////////////////////////////////////////////////

        NAME hal_lcd

        RTMODEL "__SystemLibrary", "CLib"
        RTMODEL "__calling_convention", "xdata_reentrant"
        RTMODEL "__code_model", "banked"
        RTMODEL "__core", "plain"
        RTMODEL "__data_model", "large"
        RTMODEL "__dptr_size", "16"
        RTMODEL "__extended_stack", "disabled"
        RTMODEL "__location_for_constants", "data"
        RTMODEL "__number_of_dptrs", "1"
        RTMODEL "__rt_version", "1"

        RSEG DOVERLAY:DATA:NOROOT(0)
        RSEG IOVERLAY:IDATA:NOROOT(0)
        RSEG ISTACK:IDATA:NOROOT(0)
        RSEG PSTACK:XDATA:NOROOT(0)
        RSEG XSTACK:XDATA:NOROOT(0)

        EXTERN ?V0
        EXTERN ?V1
        EXTERN ?V2
        EXTERN ?V3
        EXTERN ?V4
        EXTERN ?V5
        EXTERN ?V6
        EXTERN ?V8
        EXTERN ?V9
        EXTERN ?V10
        EXTERN ?ALLOC_XSTACK8
        EXTERN ?BANKED_ENTER_XDATA
        EXTERN ?BANKED_LEAVE_XDATA
        EXTERN ?BDISPATCH
        EXTERN ?BRET
        EXTERN ?DEALLOC_XSTACK8
        EXTERN ?PUSH_XSTACK_I_THREE
        EXTERN ?PUSH_XSTACK_I_TWO
        EXTERN ?XSP
        EXTERN ?XSTACK_DISP0_8
        EXTERN ?XSTACK_DISP101_8

        PUBLIC `??HalLcdDisplayPercentBar::?relay`
        FUNCTION `??HalLcdDisplayPercentBar::?relay`,0203H
        PUBLIC `??HalLcdInit::?relay`
        FUNCTION `??HalLcdInit::?relay`,0203H
        PUBLIC `??HalLcdWriteScreen::?relay`
        FUNCTION `??HalLcdWriteScreen::?relay`,0203H
        PUBLIC `??HalLcdWriteString::?relay`
        FUNCTION `??HalLcdWriteString::?relay`,0203H
        PUBLIC `??HalLcdWriteStringValue::?relay`
        FUNCTION `??HalLcdWriteStringValue::?relay`,0203H
        PUBLIC `??HalLcdWriteStringValueValue::?relay`
        FUNCTION `??HalLcdWriteStringValueValue::?relay`,0203H
        PUBLIC `??HalLcdWriteValue::?relay`
        FUNCTION `??HalLcdWriteValue::?relay`,0203H
        PUBLIC `??HalLcd_HW_Clear::?relay`
        FUNCTION `??HalLcd_HW_Clear::?relay`,0203H
        PUBLIC `??HalLcd_HW_ClearAllSpecChars::?relay`
        FUNCTION `??HalLcd_HW_ClearAllSpecChars::?relay`,0203H
        PUBLIC `??HalLcd_HW_Control::?relay`
        FUNCTION `??HalLcd_HW_Control::?relay`,0203H
        PUBLIC `??HalLcd_HW_Init::?relay`
        FUNCTION `??HalLcd_HW_Init::?relay`,0203H
        PUBLIC `??HalLcd_HW_SetContrast::?relay`
        FUNCTION `??HalLcd_HW_SetContrast::?relay`,0203H
        PUBLIC `??HalLcd_HW_WaitUs::?relay`
        FUNCTION `??HalLcd_HW_WaitUs::?relay`,0203H
        PUBLIC `??HalLcd_HW_Write::?relay`
        FUNCTION `??HalLcd_HW_Write::?relay`,0203H
        PUBLIC `??HalLcd_HW_WriteChar::?relay`
        FUNCTION `??HalLcd_HW_WriteChar::?relay`,0203H
        PUBLIC `??HalLcd_HW_WriteLine::?relay`
        FUNCTION `??HalLcd_HW_WriteLine::?relay`,0203H
        PUBWEAK CLKCONCMD
        PUBLIC HalLcdDisplayPercentBar
        FUNCTION HalLcdDisplayPercentBar,0a1203H
        ARGFRAME XSTACK, 0, STACK
        LOCFRAME XSTACK, 35, STACK
        PUBLIC HalLcdInit
        FUNCTION HalLcdInit,021203H
        ARGFRAME XSTACK, 0, STACK
        LOCFRAME ISTACK, 2, STACK
        PUBLIC HalLcdWriteScreen
        FUNCTION HalLcdWriteScreen,0203H
        ARGFRAME XSTACK, 0, STACK
        PUBLIC HalLcdWriteString
        FUNCTION HalLcdWriteString,0a1203H
        ARGFRAME XSTACK, 44, STACK
        ARGFRAME IOVERLAY, 0, STATIC
        ARGFRAME DOVERLAY, 0, STATIC
        LOCFRAME XSTACK, 9, STACK
        PUBLIC HalLcdWriteStringValue
        FUNCTION HalLcdWriteStringValue,0a1203H
        ARGFRAME XSTACK, 1, STACK
        LOCFRAME XSTACK, 43, STACK
        PUBLIC HalLcdWriteStringValueValue
        FUNCTION HalLcdWriteStringValueValue,0a1203H
        ARGFRAME XSTACK, 4, STACK
        LOCFRAME XSTACK, 47, STACK
        PUBLIC HalLcdWriteValue
        FUNCTION HalLcdWriteValue,0a1203H
        ARGFRAME XSTACK, 1, STACK
        LOCFRAME XSTACK, 41, STACK
        PUBLIC HalLcd_HW_Clear
        FUNCTION HalLcd_HW_Clear,0203H
        ARGFRAME XSTACK, 0, STACK
        PUBLIC HalLcd_HW_ClearAllSpecChars
        FUNCTION HalLcd_HW_ClearAllSpecChars,0203H
        ARGFRAME XSTACK, 0, STACK
        PUBLIC HalLcd_HW_Control
        FUNCTION HalLcd_HW_Control,0203H
        ARGFRAME XSTACK, 0, STACK
        PUBLIC HalLcd_HW_Init
        FUNCTION HalLcd_HW_Init,0203H
        ARGFRAME XSTACK, 0, STACK
        ARGFRAME IOVERLAY, 0, STATIC
        ARGFRAME DOVERLAY, 0, STATIC
        PUBLIC HalLcd_HW_SetContrast
        FUNCTION HalLcd_HW_SetContrast,0203H
        ARGFRAME XSTACK, 0, STACK
        PUBLIC HalLcd_HW_WaitUs
        FUNCTION HalLcd_HW_WaitUs,080203H
        ARGFRAME XSTACK, 0, STACK
        PUBLIC HalLcd_HW_Write
        FUNCTION HalLcd_HW_Write,0203H
        ARGFRAME XSTACK, 10, STACK
        ARGFRAME IOVERLAY, 0, STATIC
        ARGFRAME DOVERLAY, 0, STATIC
        PUBLIC HalLcd_HW_WriteChar
        FUNCTION HalLcd_HW_WriteChar,021203H
        ARGFRAME XSTACK, 0, STACK
        LOCFRAME XSTACK, 9, STACK
        PUBLIC HalLcd_HW_WriteLine
        FUNCTION HalLcd_HW_WriteLine,0a1203H
        ARGFRAME XSTACK, 0, STACK
        LOCFRAME XSTACK, 10, STACK
        PUBWEAK P0SEL
        PUBWEAK PERCFG
        PUBWEAK U0BAUD
        PUBWEAK U0CSR
        PUBWEAK U0DBUF
        PUBWEAK U0GCR
        
          CFI Names cfiNames0
          CFI StackFrame CFA_SP SP IDATA
          CFI StackFrame CFA_PSP16 PSP16 XDATA
          CFI StackFrame CFA_XSP16 XSP16 XDATA
          CFI StaticOverlayFrame CFA_IOVERLAY IOVERLAY
          CFI StaticOverlayFrame CFA_DOVERLAY DOVERLAY
          CFI Resource `PSW.CY`:1, `B.BR0`:1, `B.BR1`:1, `B.BR2`:1, `B.BR3`:1
          CFI Resource `B.BR4`:1, `B.BR5`:1, `B.BR6`:1, `B.BR7`:1, `VB.BR8`:1
          CFI Resource `VB.BR9`:1, `VB.BR10`:1, `VB.BR11`:1, `VB.BR12`:1
          CFI Resource `VB.BR13`:1, `VB.BR14`:1, `VB.BR15`:1, VB:8, B:8, A:8
          CFI Resource PSW:8, DPL0:8, DPH0:8, R0:8, R1:8, R2:8, R3:8, R4:8, R5:8
          CFI Resource R6:8, R7:8, V0:8, V1:8, V2:8, V3:8, V4:8, V5:8, V6:8, V7:8
          CFI Resource V8:8, V9:8, V10:8, V11:8, V12:8, V13:8, V14:8, V15:8, SP:8
          CFI Resource PSPH:8, PSPL:8, PSP16:16, XSPH:8, XSPL:8, XSP16:16
          CFI VirtualResource ?RET:24
          CFI Resource ?BRET_EXT:8
          CFI VirtualResource ?RET_HIGH:8, ?RET_LOW:8
          CFI ResourceParts PSP16 PSPH, PSPL
          CFI ResourceParts XSP16 XSPH, XSPL
          CFI ResourceParts ?RET ?BRET_EXT, ?RET_HIGH, ?RET_LOW
          CFI EndNames cfiNames0
        
          CFI Common cfiCommon0 Using cfiNames0
          CFI CodeAlign 1
          CFI DataAlign -1
          CFI ReturnAddress ?RET CODE
          CFI CFA_DOVERLAY Used
          CFI CFA_IOVERLAY Used
          CFI CFA_SP SP+-3
          CFI CFA_PSP16 PSP16+0
          CFI CFA_XSP16 XSP16+0
          CFI `PSW.CY` SameValue
          CFI `B.BR0` SameValue
          CFI `B.BR1` SameValue
          CFI `B.BR2` SameValue
          CFI `B.BR3` SameValue
          CFI `B.BR4` SameValue
          CFI `B.BR5` SameValue
          CFI `B.BR6` SameValue
          CFI `B.BR7` SameValue
          CFI `VB.BR8` SameValue
          CFI `VB.BR9` SameValue
          CFI `VB.BR10` SameValue
          CFI `VB.BR11` SameValue
          CFI `VB.BR12` SameValue
          CFI `VB.BR13` SameValue
          CFI `VB.BR14` SameValue
          CFI `VB.BR15` SameValue
          CFI VB SameValue
          CFI B Undefined
          CFI A Undefined
          CFI PSW SameValue
          CFI DPL0 SameValue
          CFI DPH0 SameValue
          CFI R0 Undefined
          CFI R1 Undefined
          CFI R2 Undefined
          CFI R3 Undefined
          CFI R4 Undefined
          CFI R5 Undefined
          CFI R6 SameValue
          CFI R7 SameValue
          CFI V0 SameValue
          CFI V1 SameValue
          CFI V2 SameValue
          CFI V3 SameValue
          CFI V4 SameValue
          CFI V5 SameValue
          CFI V6 SameValue
          CFI V7 SameValue
          CFI V8 SameValue
          CFI V9 SameValue
          CFI V10 SameValue
          CFI V11 SameValue
          CFI V12 SameValue
          CFI V13 SameValue
          CFI V14 SameValue
          CFI V15 SameValue
          CFI PSPH Undefined
          CFI PSPL Undefined
          CFI XSPH Undefined
          CFI XSPL Undefined
          CFI ?RET Concat
          CFI ?BRET_EXT Frame(CFA_SP, 3)
          CFI ?RET_HIGH Frame(CFA_SP, 2)
          CFI ?RET_LOW Frame(CFA_SP, 1)
          CFI EndCommon cfiCommon0
        
        
          CFI Common cfiCommon1 Using cfiNames0
          CFI CodeAlign 1
          CFI DataAlign -1
          CFI ReturnAddress ?RET CODE
          CFI CFA_DOVERLAY Used
          CFI CFA_IOVERLAY Used
          CFI CFA_SP SP+-2
          CFI CFA_PSP16 PSP16+0
          CFI CFA_XSP16 XSP16+0
          CFI `PSW.CY` SameValue
          CFI `B.BR0` SameValue
          CFI `B.BR1` SameValue
          CFI `B.BR2` SameValue
          CFI `B.BR3` SameValue
          CFI `B.BR4` SameValue
          CFI `B.BR5` SameValue
          CFI `B.BR6` SameValue
          CFI `B.BR7` SameValue
          CFI `VB.BR8` SameValue
          CFI `VB.BR9` SameValue
          CFI `VB.BR10` SameValue
          CFI `VB.BR11` SameValue
          CFI `VB.BR12` SameValue
          CFI `VB.BR13` SameValue
          CFI `VB.BR14` SameValue
          CFI `VB.BR15` SameValue
          CFI VB SameValue
          CFI B SameValue
          CFI A SameValue
          CFI PSW SameValue
          CFI DPL0 SameValue
          CFI DPH0 SameValue
          CFI R0 SameValue
          CFI R1 SameValue
          CFI R2 SameValue
          CFI R3 SameValue
          CFI R4 SameValue
          CFI R5 SameValue
          CFI R6 SameValue
          CFI R7 SameValue
          CFI V0 SameValue
          CFI V1 SameValue
          CFI V2 SameValue
          CFI V3 SameValue
          CFI V4 SameValue
          CFI V5 SameValue
          CFI V6 SameValue
          CFI V7 SameValue
          CFI V8 SameValue
          CFI V9 SameValue
          CFI V10 SameValue
          CFI V11 SameValue
          CFI V12 SameValue
          CFI V13 SameValue
          CFI V14 SameValue
          CFI V15 SameValue
          CFI PSPH Undefined
          CFI PSPL Undefined
          CFI XSPH Undefined
          CFI XSPL Undefined
          CFI ?RET Concat
          CFI ?BRET_EXT SameValue
          CFI ?RET_HIGH Frame(CFA_SP, 2)
          CFI ?RET_LOW Frame(CFA_SP, 1)
          CFI EndCommon cfiCommon1
        
_ltoa               SYMBOL "_ltoa"
`??_ltoa::?relay`   SYMBOL "?relay", _ltoa
osal_memcpy         SYMBOL "osal_memcpy"
`??osal_memcpy::?relay` SYMBOL "?relay", osal_memcpy
osal_strlen         SYMBOL "osal_strlen"
`??osal_strlen::?relay` SYMBOL "?relay", osal_strlen
HalLcdDisplayPercentBar SYMBOL "HalLcdDisplayPercentBar"
`??HalLcdDisplayPercentBar::?relay` SYMBOL "?relay", HalLcdDisplayPercentBar
HalLcdInit          SYMBOL "HalLcdInit"
`??HalLcdInit::?relay` SYMBOL "?relay", HalLcdInit
HalLcdWriteScreen   SYMBOL "HalLcdWriteScreen"
`??HalLcdWriteScreen::?relay` SYMBOL "?relay", HalLcdWriteScreen
HalLcdWriteString   SYMBOL "HalLcdWriteString"
`??HalLcdWriteString::?relay` SYMBOL "?relay", HalLcdWriteString
HalLcdWriteStringValue SYMBOL "HalLcdWriteStringValue"
`??HalLcdWriteStringValue::?relay` SYMBOL "?relay", HalLcdWriteStringValue
HalLcdWriteStringValueValue SYMBOL "HalLcdWriteStringValueValue"
`??HalLcdWriteStringValueValue::?relay` SYMBOL "?relay", HalLcdWriteStringValueValue
HalLcdWriteValue    SYMBOL "HalLcdWriteValue"
`??HalLcdWriteValue::?relay` SYMBOL "?relay", HalLcdWriteValue
HalLcd_HW_Clear     SYMBOL "HalLcd_HW_Clear"
`??HalLcd_HW_Clear::?relay` SYMBOL "?relay", HalLcd_HW_Clear
HalLcd_HW_ClearAllSpecChars SYMBOL "HalLcd_HW_ClearAllSpecChars"
`??HalLcd_HW_ClearAllSpecChars::?relay` SYMBOL "?relay", HalLcd_HW_ClearAllSpecChars
HalLcd_HW_Control   SYMBOL "HalLcd_HW_Control"
`??HalLcd_HW_Control::?relay` SYMBOL "?relay", HalLcd_HW_Control
HalLcd_HW_Init      SYMBOL "HalLcd_HW_Init"
`??HalLcd_HW_Init::?relay` SYMBOL "?relay", HalLcd_HW_Init
HalLcd_HW_SetContrast SYMBOL "HalLcd_HW_SetContrast"
`??HalLcd_HW_SetContrast::?relay` SYMBOL "?relay", HalLcd_HW_SetContrast
HalLcd_HW_WaitUs    SYMBOL "HalLcd_HW_WaitUs"
`??HalLcd_HW_WaitUs::?relay` SYMBOL "?relay", HalLcd_HW_WaitUs
HalLcd_HW_Write     SYMBOL "HalLcd_HW_Write"
`??HalLcd_HW_Write::?relay` SYMBOL "?relay", HalLcd_HW_Write
HalLcd_HW_WriteChar SYMBOL "HalLcd_HW_WriteChar"
`??HalLcd_HW_WriteChar::?relay` SYMBOL "?relay", HalLcd_HW_WriteChar
HalLcd_HW_WriteLine SYMBOL "HalLcd_HW_WriteLine"
`??HalLcd_HW_WriteLine::?relay` SYMBOL "?relay", HalLcd_HW_WriteLine

        EXTERN `??_ltoa::?relay`
        FUNCTION `??_ltoa::?relay`,00H
        EXTERN `??osal_memcpy::?relay`
        FUNCTION `??osal_memcpy::?relay`,00H
        EXTERN `??osal_strlen::?relay`
        FUNCTION `??osal_strlen::?relay`,00H
        EXTERN _ltoa
        FUNCTION _ltoa,0202H
        ARGFRAME ISTACK, 0, STACK
        ARGFRAME PSTACK, 0, STACK
        ARGFRAME XSTACK, 46, STACK
        ARGFRAME IOVERLAY, 0, STATIC
        ARGFRAME DOVERLAY, 0, STATIC
        EXTERN osal_memcpy
        FUNCTION osal_memcpy,0202H
        ARGFRAME ISTACK, 0, STACK
        ARGFRAME PSTACK, 0, STACK
        ARGFRAME XSTACK, 47, STACK
        ARGFRAME IOVERLAY, 0, STATIC
        ARGFRAME DOVERLAY, 0, STATIC
        EXTERN osal_strlen
        FUNCTION osal_strlen,0202H
        ARGFRAME ISTACK, 0, STACK
        ARGFRAME PSTACK, 0, STACK
        ARGFRAME XSTACK, 44, STACK
        ARGFRAME IOVERLAY, 0, STATIC
        ARGFRAME DOVERLAY, 0, STATIC

// C:\Users\bsavanovic\Desktop\EndDevice\ZigBeeEndDevice\Components\hal\target\CC2530EB\hal_lcd.c
//    1 /**************************************************************************************************
//    2   Filename:       hal_lcd.c
//    3   Revised:        $Date: 2012-09-30 16:36:36 -0700 (Sun, 30 Sep 2012) $
//    4   Revision:       $Revision: 31658 $
//    5 
//    6   Description:    This file contains the interface to the HAL LCD Service.
//    7 
//    8 
//    9   Copyright 2007-2012 Texas Instruments Incorporated. All rights reserved.
//   10 
//   11   IMPORTANT: Your use of this Software is limited to those specific rights
//   12   granted under the terms of a software license agreement between the user
//   13   who downloaded the software, his/her employer (which must be your employer)
//   14   and Texas Instruments Incorporated (the "License"). You may not use this
//   15   Software unless you agree to abide by the terms of the License. The License
//   16   limits your use, and you acknowledge, that the Software may not be modified,
//   17   copied or distributed unless embedded on a Texas Instruments microcontroller
//   18   or used solely and exclusively in conjunction with a Texas Instruments radio
//   19   frequency transceiver, which is integrated into your product. Other than for
//   20   the foregoing purpose, you may not use, reproduce, copy, prepare derivative
//   21   works of, modify, distribute, perform, display or sell this Software and/or
//   22   its documentation for any purpose.
//   23 
//   24   YOU FURTHER ACKNOWLEDGE AND AGREE THAT THE SOFTWARE AND DOCUMENTATION ARE
//   25   PROVIDED “AS IS” WITHOUT WARRANTY OF ANY KIND, EITHER EXPRESS OR IMPLIED,
//   26   INCLUDING WITHOUT LIMITATION, ANY WARRANTY OF MERCHANTABILITY, TITLE,
//   27   NON-INFRINGEMENT AND FITNESS FOR A PARTICULAR PURPOSE. IN NO EVENT SHALL
//   28   TEXAS INSTRUMENTS OR ITS LICENSORS BE LIABLE OR OBLIGATED UNDER CONTRACT,
//   29   NEGLIGENCE, STRICT LIABILITY, CONTRIBUTION, BREACH OF WARRANTY, OR OTHER
//   30   LEGAL EQUITABLE THEORY ANY DIRECT OR INDIRECT DAMAGES OR EXPENSES
//   31   INCLUDING BUT NOT LIMITED TO ANY INCIDENTAL, SPECIAL, INDIRECT, PUNITIVE
//   32   OR CONSEQUENTIAL DAMAGES, LOST PROFITS OR LOST DATA, COST OF PROCUREMENT
//   33   OF SUBSTITUTE GOODS, TECHNOLOGY, SERVICES, OR ANY CLAIMS BY THIRD PARTIES
//   34   (INCLUDING BUT NOT LIMITED TO ANY DEFENSE THEREOF), OR OTHER SIMILAR COSTS.
//   35 
//   36   Should you have any questions regarding your right to use this Software,
//   37   contact Texas Instruments Incorporated at www.TI.com.
//   38 **************************************************************************************************/
//   39 
//   40 /**************************************************************************************************
//   41  *                                           INCLUDES
//   42  **************************************************************************************************/
//   43 #include "hal_types.h"
//   44 #include "hal_lcd.h"

        ASEGN SFR_AN:DATA:NOROOT,086H
// unsigned char volatile __sfr U0CSR
U0CSR:
        DATA8
        DS 1

        ASEGN SFR_AN:DATA:NOROOT,0c1H
// unsigned char volatile __sfr U0DBUF
U0DBUF:
        DATA8
        DS 1

        ASEGN SFR_AN:DATA:NOROOT,0c2H
// unsigned char volatile __sfr U0BAUD
U0BAUD:
        DATA8
        DS 1

        ASEGN SFR_AN:DATA:NOROOT,0c5H
// unsigned char volatile __sfr U0GCR
U0GCR:
        DATA8
        DS 1

        ASEGN SFR_AN:DATA:NOROOT,0c6H
// unsigned char volatile __sfr CLKCONCMD
CLKCONCMD:
        DATA8
        DS 1

        ASEGN SFR_AN:DATA:NOROOT,0f1H
// unsigned char volatile __sfr PERCFG
PERCFG:
        DATA8
        DS 1

        ASEGN SFR_AN:DATA:NOROOT,0f3H
// unsigned char volatile __sfr P0SEL
P0SEL:
        DATA8
        DS 1
//   45 #include "OSAL.h"
//   46 #include "OnBoard.h"
//   47 #include "hal_assert.h"
//   48 
//   49 #if defined (ZTOOL_P1) || defined (ZTOOL_P2)
//   50   #include "DebugTrace.h"
//   51 #endif
//   52 
//   53 /**************************************************************************************************
//   54  *                                          CONSTANTS
//   55  **************************************************************************************************/
//   56 /*
//   57   LCD pins
//   58 
//   59   //control
//   60   P0.0 - LCD_MODE
//   61   P1.1 - LCD_FLASH_RESET
//   62   P1.2 - LCD_CS
//   63 
//   64   //spi
//   65   P1.5 - CLK
//   66   P1.6 - MOSI
//   67   P1.7 - MISO
//   68 */
//   69 
//   70 /* LCD Control lines */
//   71 #define HAL_LCD_MODE_PORT 0
//   72 #define HAL_LCD_MODE_PIN  0
//   73 
//   74 #define HAL_LCD_RESET_PORT 1
//   75 #define HAL_LCD_RESET_PIN  1
//   76 
//   77 #define HAL_LCD_CS_PORT 1
//   78 #define HAL_LCD_CS_PIN  2
//   79 
//   80 /* LCD SPI lines */
//   81 #define HAL_LCD_CLK_PORT 1
//   82 #define HAL_LCD_CLK_PIN  5
//   83 
//   84 #define HAL_LCD_MOSI_PORT 1
//   85 #define HAL_LCD_MOSI_PIN  6
//   86 
//   87 #define HAL_LCD_MISO_PORT 1
//   88 #define HAL_LCD_MISO_PIN  7
//   89 
//   90 /* SPI settings */
//   91 #define HAL_SPI_CLOCK_POL_LO       0x00
//   92 #define HAL_SPI_CLOCK_PHA_0        0x00
//   93 #define HAL_SPI_TRANSFER_MSB_FIRST 0x20
//   94 
//   95 /* LCD lines */
//   96 #define LCD_MAX_LINE_COUNT              3
//   97 
//   98 /* Defines for HW LCD */
//   99 
//  100 /* Set power save mode */
//  101 #define OSC_OFF                         0x00
//  102 #define OSC_ON                          0x01
//  103 #define POWER_SAVE_OFF                  0x00
//  104 #define POWER_SAVE_ON                   0x02
//  105 #define SET_POWER_SAVE_MODE(options)    HalLcd_HW_Control(0x0C | (options))
//  106 
//  107 /* Function Set */
//  108 #define CGROM                           0x00
//  109 #define CGRAM                           0x01
//  110 #define COM_FORWARD                     0x00
//  111 #define COM_BACKWARD                    0x02
//  112 #define TWO_LINE                        0x00
//  113 #define THREE_LINE                      0x04
//  114 #define FUNCTION_SET(options)           HalLcd_HW_Control(0x10 | (options))
//  115 
//  116 /* Set Display Start Line */
//  117 #define LINE1                           0x00
//  118 #define LINE2                           0x01
//  119 #define LINE3                           0x02
//  120 #define LINE4                           0x03
//  121 #define SET_DISPLAY_START_LINE(line)    HalLcd_HW_Control(0x18 | (line))
//  122 
//  123 /* Bias control */
//  124 #define BIAS_1_5                        0x00
//  125 #define BIAS_1_4                        0x01
//  126 #define SET_BIAS_CTRL(bias)             HalLcd_HW_Control(0x1C | (bias))
//  127 
//  128 /* Power control */
//  129 #define VOLTAGE_DIVIDER_OFF             0x00
//  130 #define VOLTAGE_DIVIDER_ON              0x01
//  131 #define CONVERTER_AND_REG_OFF           0x00
//  132 #define CONVERTER_AND_REG_ON            0x04
//  133 #define SET_POWER_CTRL(options)         HalLcd_HW_Control(0x20 | (options))
//  134 
//  135 // Set display control
//  136 #define DISPLAY_CTRL_ON                 0x01
//  137 #define DISPLAY_CTRL_OFF                0x00
//  138 #define DISPLAY_CTRL_BLINK_ON           0x02
//  139 #define DISPLAY_CTRL_BLINK_OFF          0x00
//  140 #define DISPLAY_CTRL_CURSOR_ON          0x04
//  141 #define DISPLAY_CTRL_CURSOR_OFF         0x00
//  142 #define SET_DISPLAY_CTRL(options)       HalLcd_HW_Control(0x28 | (options))
//  143 
//  144 /* Set DD/ CGRAM address */
//  145 #define SET_DDRAM_ADDR(charIndex)       HalLcd_HW_Control(0x80 | (charIndex))
//  146 #define SET_GCRAM_CHAR(specIndex)       HalLcd_HW_Control(0xC0 | (specIndex))
//  147 
//  148 /* Set ICONRAM address */
//  149 #define CONTRAST_CTRL_REGISTER          0x10
//  150 #define SET_ICONRAM_ADDR(addr)          HalLcd_HW_Control(0x40 | (addr))
//  151 
//  152 /* Set double height */
//  153 #define LINE_1_AND_2                    0x01
//  154 #define LINE_2_AND_3                    0x02
//  155 #define NORMAL_DISPLAY                  0x00
//  156 #define SET_DOUBLE_HEIGHT(options)      HalLcd_HW_Control(0x08 | (options))
//  157 
//  158 /**************************************************************************************************
//  159  *                                           MACROS
//  160  **************************************************************************************************/
//  161 
//  162 #define HAL_IO_SET(port, pin, val)        HAL_IO_SET_PREP(port, pin, val)
//  163 #define HAL_IO_SET_PREP(port, pin, val)   st( P##port##_##pin## = val; )
//  164 
//  165 #define HAL_CONFIG_IO_OUTPUT(port, pin, val)      HAL_CONFIG_IO_OUTPUT_PREP(port, pin, val)
//  166 #define HAL_CONFIG_IO_OUTPUT_PREP(port, pin, val) st( P##port##SEL &= ~BV(pin); \ 
//  167                                                       P##port##_##pin## = val; \ 
//  168                                                       P##port##DIR |= BV(pin); )
//  169 
//  170 #define HAL_CONFIG_IO_PERIPHERAL(port, pin)      HAL_CONFIG_IO_PERIPHERAL_PREP(port, pin)
//  171 #define HAL_CONFIG_IO_PERIPHERAL_PREP(port, pin) st( P##port##SEL |= BV(pin); )
//  172 
//  173 
//  174 
//  175 /* SPI interface control */
//  176 #define LCD_SPI_BEGIN()     HAL_IO_SET(HAL_LCD_CS_PORT,  HAL_LCD_CS_PIN,  0); /* chip select */
//  177 #define LCD_SPI_END()                                                         \ 
//  178 {                                                                             \ 
//  179   asm("NOP");                                                                 \ 
//  180   asm("NOP");                                                                 \ 
//  181   asm("NOP");                                                                 \ 
//  182   asm("NOP");                                                                 \ 
//  183   HAL_IO_SET(HAL_LCD_CS_PORT,  HAL_LCD_CS_PIN,  1); /* chip select */         \ 
//  184 }
//  185 /* clear the received and transmit byte status, write tx data to buffer, wait till transmit done */
//  186 #define LCD_SPI_TX(x)                   { U1CSR &= ~(BV(2) | BV(1)); U1DBUF = x; while( !(U1CSR & BV(1)) ); }
//  187 #define LCD_SPI_WAIT_RXRDY()            { while(!(U1CSR & BV(1))); }
//  188 
//  189 
//  190 /* Control macros */
//  191 #define LCD_DO_WRITE()        HAL_IO_SET(HAL_LCD_MODE_PORT,  HAL_LCD_MODE_PIN,  1);
//  192 #define LCD_DO_CONTROL()      HAL_IO_SET(HAL_LCD_MODE_PORT,  HAL_LCD_MODE_PIN,  0);
//  193 
//  194 #define LCD_ACTIVATE_RESET()  HAL_IO_SET(HAL_LCD_RESET_PORT, HAL_LCD_RESET_PIN, 0);
//  195 #define LCD_RELEASE_RESET()   HAL_IO_SET(HAL_LCD_RESET_PORT, HAL_LCD_RESET_PIN, 1);
//  196 
//  197 #if (HAL_LCD == TRUE)
//  198 /**************************************************************************************************
//  199  *                                       LOCAL VARIABLES
//  200  **************************************************************************************************/
//  201 
//  202 static uint8 *Lcd_Line1;
//  203 
//  204 /**************************************************************************************************
//  205  *                                       FUNCTIONS - API
//  206  **************************************************************************************************/
//  207 
//  208 void HalLcd_HW_Init(void);
//  209 void HalLcd_HW_WaitUs(uint16 i);
//  210 void HalLcd_HW_Clear(void);
//  211 void HalLcd_HW_ClearAllSpecChars(void);
//  212 void HalLcd_HW_Control(uint8 cmd);
//  213 void HalLcd_HW_Write(uint8 data);
//  214 void HalLcd_HW_SetContrast(uint8 value);
//  215 void HalLcd_HW_WriteChar(uint8 line, uint8 col, char text);
//  216 void HalLcd_HW_WriteLine(uint8 line, const char *pText);
//  217 #endif //LCD
//  218 
//  219 /**************************************************************************************************
//  220  * @fn      HalLcdInit
//  221  *
//  222  * @brief   Initilize LCD Service
//  223  *
//  224  * @param   init - pointer to void that contains the initialized value
//  225  *
//  226  * @return  None
//  227  **************************************************************************************************/

        RSEG BANKED_CODE:HUGECODE:NOROOT(0)
//  228 void HalLcdInit(void)
HalLcdInit:
          CFI Block cfiBlock0 Using cfiCommon0
          CFI Function HalLcdInit
        CODE
//  229 { 
        FUNCALL HalLcdInit, HalLcd_HW_Init
        LOCFRAME ISTACK, 2, STACK
        LOCFRAME PSTACK, 0, STACK
        LOCFRAME XSTACK, 0, STACK
        LOCFRAME IOVERLAY, 0, STATIC
        LOCFRAME DOVERLAY, 0, STATIC
        ARGFRAME ISTACK, 2, STACK
        ARGFRAME PSTACK, 0, STACK
        ARGFRAME XSTACK, 0, STACK
        ARGFRAME IOVERLAY, 0, STATIC
        ARGFRAME DOVERLAY, 0, STATIC
        PUSH    DPL
          CFI DPL0 Frame(CFA_SP, 4)
          CFI CFA_SP SP+-4
        PUSH    DPH
          CFI DPH0 Frame(CFA_SP, 5)
          CFI CFA_SP SP+-5
        ; Saved register size: 2
        ; Auto size: 0
//  230   
//  231   HalLcd_HW_Init();
        ; Setup parameters for call to function HalLcd_HW_Init
        LCALL   `??HalLcd_HW_Init::?relay`; Banked call to: HalLcd_HW_Init
//  232 
//  233 /*
//  234 #if (HAL_LCD == TRUE)
//  235   Lcd_Line1 = NULL;
//  236  
//  237 #endif
//  238   
//  239   */
//  240 }
        POP     DPH
          CFI DPH0 SameValue
          CFI CFA_SP SP+-4
        POP     DPL
          CFI DPL0 SameValue
          CFI CFA_SP SP+-3
        LJMP    ?BRET
          CFI EndBlock cfiBlock0
//  241 
//  242 /*************************************************************************************************
//  243  *                    LCD EMULATION FUNCTIONS
//  244  *
//  245  * Some evaluation boards are equipped with Liquid Crystal Displays
//  246  * (LCD) which may be used to display diagnostic information. These
//  247  * functions provide LCD emulation, sending the diagnostic strings
//  248  * to Z-Tool via the RS232 serial port. These functions are enabled
//  249  * when the "LCD_SUPPORTED" compiler flag is placed in the makefile.
//  250  *
//  251  * Most applications update both lines (1 and 2) of the LCD whenever
//  252  * text is posted to the device. This emulator assumes that line 1 is
//  253  * updated first (saved locally) and the formatting and send operation
//  254  * is triggered by receipt of line 2. Nothing will be transmitted if
//  255  * only line 1 is updated.
//  256  *
//  257  *************************************************************************************************/
//  258 
//  259 
//  260 /**************************************************************************************************
//  261  * @fn      HalLcdWriteString
//  262  *
//  263  * @brief   Write a string to the LCD
//  264  *
//  265  * @param   str    - pointer to the string that will be displayed
//  266  *          option - display options
//  267  *
//  268  * @return  None
//  269  **************************************************************************************************/

        RSEG BANKED_CODE:HUGECODE:NOROOT(0)
//  270 void HalLcdWriteString ( char *str, uint8 option)
HalLcdWriteString:
          CFI Block cfiBlock1 Using cfiCommon0
          CFI Function HalLcdWriteString
        CODE
//  271 {
        FUNCALL HalLcdWriteString, HalLcd_HW_Write
        LOCFRAME ISTACK, 0, STACK
        LOCFRAME PSTACK, 0, STACK
        LOCFRAME XSTACK, 9, STACK
        LOCFRAME IOVERLAY, 0, STATIC
        LOCFRAME DOVERLAY, 0, STATIC
        ARGFRAME ISTACK, 0, STACK
        ARGFRAME PSTACK, 0, STACK
        ARGFRAME XSTACK, 9, STACK
        ARGFRAME IOVERLAY, 0, STATIC
        ARGFRAME DOVERLAY, 0, STATIC
        FUNCALL HalLcdWriteString, HalLcd_HW_Write
        LOCFRAME ISTACK, 0, STACK
        LOCFRAME PSTACK, 0, STACK
        LOCFRAME XSTACK, 9, STACK
        LOCFRAME IOVERLAY, 0, STATIC
        LOCFRAME DOVERLAY, 0, STATIC
        ARGFRAME ISTACK, 0, STACK
        ARGFRAME PSTACK, 0, STACK
        ARGFRAME XSTACK, 9, STACK
        ARGFRAME IOVERLAY, 0, STATIC
        ARGFRAME DOVERLAY, 0, STATIC
        REQUIRE ?V0
        MOV     A,#-0x9
        LCALL   ?BANKED_ENTER_XDATA
          CFI DPH0 load(1, XDATA, add(CFA_XSP16, literal(-1)))
          CFI DPL0 load(1, XDATA, add(CFA_XSP16, literal(-2)))
          CFI ?BRET_EXT load(1, XDATA, add(CFA_XSP16, literal(-3)))
          CFI ?RET_HIGH load(1, XDATA, add(CFA_XSP16, literal(-4)))
          CFI ?RET_LOW load(1, XDATA, add(CFA_XSP16, literal(-5)))
          CFI R7 load(1, XDATA, add(CFA_XSP16, literal(-6)))
          CFI V0 load(1, XDATA, add(CFA_XSP16, literal(-7)))
          CFI VB load(1, XDATA, add(CFA_XSP16, literal(-8)))
          CFI R6 load(1, XDATA, add(CFA_XSP16, literal(-9)))
          CFI CFA_SP SP+0
          CFI CFA_XSP16 add(XSP16, 9)
        ; Saved register size: 9
        ; Auto size: 0
        MOV     A,R2
        MOV     R6,A
        MOV     A,R3
        MOV     R7,A
//  272 #if (HAL_LCD == TRUE)
//  273 
//  274   uint8 strLen = 0;
//  275   uint8 totalLen = 0;
//  276   uint8 *buf;
//  277   uint8 tmpLen;
//  278 
//  279 #endif 
//  280   
//  281   uint8 i = 0;
        MOV     ?V0,#0x0
        SJMP    ??HalLcdWriteString_0
//  282   
//  283   
//  284   while(*(str + i) != '\0')
//  285   {
//  286     HalLcd_HW_Write(*(str + i++));
??HalLcdWriteString_1:
        ; Setup parameters for call to function HalLcd_HW_Write
        MOV     R1,A
        LCALL   `??HalLcd_HW_Write::?relay`; Banked call to: HalLcd_HW_Write
        INC     ?V0
//  287   }
??HalLcdWriteString_0:
        MOV     R0,?V0
        MOV     A,R6
        ADD     A,R0
        MOV     DPL,A
        CLR     A
        ADDC    A,R7
        MOV     DPH,A
        MOVX    A,@DPTR
        JNZ     ??HalLcdWriteString_1
//  288   
//  289   HalLcd_HW_Write(10);
        ; Setup parameters for call to function HalLcd_HW_Write
        MOV     R1,#0xa
          CFI EndBlock cfiBlock1
        REQUIRE ?Subroutine0
        ; // Fall through to label ?Subroutine0
//  290   
//  291  /*
//  292   if ( Lcd_Line1 == NULL )
//  293   {
//  294     Lcd_Line1 = osal_mem_alloc( HAL_LCD_MAX_CHARS+1 );
//  295     HalLcdWriteString( "TexasInstruments", 1 );
//  296   }
//  297 
//  298   strLen = (uint8)osal_strlen( (char*)str );
//  299 
//  300   /* Check boundries 
//  301   if ( strLen > HAL_LCD_MAX_CHARS )
//  302     strLen = HAL_LCD_MAX_CHARS;
//  303 
//  304   if ( option == HAL_LCD_LINE_1 )
//  305   {
//  306     /* Line 1 gets saved for later 
//  307     osal_memcpy( Lcd_Line1, str, strLen );
//  308     Lcd_Line1[strLen] = '\0';
//  309   }
//  310   else
//  311   {
//  312     /* Line 2 triggers action 
//  313     tmpLen = (uint8)osal_strlen( (char*)Lcd_Line1 );
//  314     totalLen =  tmpLen + 1 + strLen + 1;
//  315     buf = osal_mem_alloc( totalLen );
//  316     if ( buf != NULL )
//  317     {
//  318       /* Concatenate strings 
//  319       osal_memcpy( buf, Lcd_Line1, tmpLen );
//  320       buf[tmpLen++] = ' ';
//  321       osal_memcpy( &buf[tmpLen], str, strLen );
//  322       buf[tmpLen+strLen] = '\0';
//  323 
//  324       /* Send it out 
//  325 #if defined (ZTOOL_P1) || defined (ZTOOL_P2)
//  326 
//  327 #if defined(SERIAL_DEBUG_SUPPORTED)
//  328       debug_str( (uint8*)buf );
//  329 #endif //LCD_SUPPORTED
//  330 
//  331 #endif //ZTOOL_P1
//  332 
//  333       /* Free mem 
//  334       osal_mem_free( buf );
//  335     }
//  336   }
//  337 
//  338   /* Display the string 
//  339   HalLcd_HW_WriteLine (option, str);
//  340 
//  341 #endif //HAL_LCD
//  342 */
//  343   
//  344 }

        RSEG BANKED_CODE:HUGECODE:NOROOT(0)
?Subroutine0:
          CFI Block cfiBlock2 Using cfiCommon0
          CFI NoFunction
          CFI CFA_SP SP+0
          CFI CFA_XSP16 add(XSP16, 9)
          CFI VB load(1, XDATA, add(CFA_XSP16, literal(-8)))
          CFI DPL0 load(1, XDATA, add(CFA_XSP16, literal(-2)))
          CFI DPH0 load(1, XDATA, add(CFA_XSP16, literal(-1)))
          CFI R6 load(1, XDATA, add(CFA_XSP16, literal(-9)))
          CFI R7 load(1, XDATA, add(CFA_XSP16, literal(-6)))
          CFI V0 load(1, XDATA, add(CFA_XSP16, literal(-7)))
          CFI ?BRET_EXT load(1, XDATA, add(CFA_XSP16, literal(-3)))
          CFI ?RET_HIGH load(1, XDATA, add(CFA_XSP16, literal(-4)))
          CFI ?RET_LOW load(1, XDATA, add(CFA_XSP16, literal(-5)))
        LCALL   `??HalLcd_HW_Write::?relay`; Banked call to: HalLcd_HW_Write
        MOV     R7,#0x1
        LJMP    ?BANKED_LEAVE_XDATA
          CFI EndBlock cfiBlock2
//  345 
//  346 /**************************************************************************************************
//  347  * @fn      HalLcdWriteValue
//  348  *
//  349  * @brief   Write a value to the LCD
//  350  *
//  351  * @param   value  - value that will be displayed
//  352  *          radix  - 8, 10, 16
//  353  *          option - display options
//  354  *
//  355  * @return  None
//  356  **************************************************************************************************/

        RSEG BANKED_CODE:HUGECODE:NOROOT(0)
//  357 void HalLcdWriteValue ( uint32 value, const uint8 radix, uint8 option)
HalLcdWriteValue:
          CFI Block cfiBlock3 Using cfiCommon0
          CFI Function HalLcdWriteValue
        CODE
//  358 {
        FUNCALL HalLcdWriteValue, _ltoa
        LOCFRAME ISTACK, 0, STACK
        LOCFRAME PSTACK, 0, STACK
        LOCFRAME XSTACK, 41, STACK
        LOCFRAME IOVERLAY, 0, STATIC
        LOCFRAME DOVERLAY, 0, STATIC
        ARGFRAME ISTACK, 0, STACK
        ARGFRAME PSTACK, 0, STACK
        ARGFRAME XSTACK, 41, STACK
        ARGFRAME IOVERLAY, 0, STATIC
        ARGFRAME DOVERLAY, 0, STATIC
        FUNCALL HalLcdWriteValue, HalLcdWriteString
        LOCFRAME ISTACK, 0, STACK
        LOCFRAME PSTACK, 0, STACK
        LOCFRAME XSTACK, 39, STACK
        LOCFRAME IOVERLAY, 0, STATIC
        LOCFRAME DOVERLAY, 0, STATIC
        ARGFRAME ISTACK, 0, STACK
        ARGFRAME PSTACK, 0, STACK
        ARGFRAME XSTACK, 39, STACK
        ARGFRAME IOVERLAY, 0, STATIC
        ARGFRAME DOVERLAY, 0, STATIC
        REQUIRE ?V0
        REQUIRE ?V1
        REQUIRE ?V2
        REQUIRE ?V3
        REQUIRE ?V4
        REQUIRE ?V5
        MOV     A,#-0xe
        LCALL   ?BANKED_ENTER_XDATA
          CFI DPH0 load(1, XDATA, add(CFA_XSP16, literal(-1)))
          CFI DPL0 load(1, XDATA, add(CFA_XSP16, literal(-2)))
          CFI ?BRET_EXT load(1, XDATA, add(CFA_XSP16, literal(-3)))
          CFI ?RET_HIGH load(1, XDATA, add(CFA_XSP16, literal(-4)))
          CFI ?RET_LOW load(1, XDATA, add(CFA_XSP16, literal(-5)))
          CFI R7 load(1, XDATA, add(CFA_XSP16, literal(-6)))
          CFI V5 load(1, XDATA, add(CFA_XSP16, literal(-7)))
          CFI V4 load(1, XDATA, add(CFA_XSP16, literal(-8)))
          CFI V3 load(1, XDATA, add(CFA_XSP16, literal(-9)))
          CFI V2 load(1, XDATA, add(CFA_XSP16, literal(-10)))
          CFI V1 load(1, XDATA, add(CFA_XSP16, literal(-11)))
          CFI V0 load(1, XDATA, add(CFA_XSP16, literal(-12)))
          CFI VB load(1, XDATA, add(CFA_XSP16, literal(-13)))
          CFI R6 load(1, XDATA, add(CFA_XSP16, literal(-14)))
          CFI CFA_SP SP+0
          CFI CFA_XSP16 add(XSP16, 14)
        ; Saved register size: 14
        ; Auto size: 25
        MOV     A,#-0x19
        LCALL   ?ALLOC_XSTACK8
          CFI CFA_XSP16 add(XSP16, 39)
        MOV     A,R1
        MOV     R6,A
//  359   
//  360 #if (HAL_LCD == TRUE)
//  361   uint8 buf[HAL_LCD_MAX_BUFF];
//  362 
//  363   _ltoa( value, &buf[0], radix );
        ; Setup parameters for call to function _ltoa
        MOV     R0,?XSP + 0
        MOV     R1,?XSP + 1
        MOV     ?V4,R0
        MOV     ?V5,R1
        MOV     R0,#?V4
        LCALL   ?PUSH_XSTACK_I_TWO
          CFI CFA_XSP16 add(XSP16, 41)
        MOV     A,R6
        MOV     R1,A
        LCALL   `??_ltoa::?relay`    ; Banked call to: _ltoa
        MOV     A,#0x2
        LCALL   ?DEALLOC_XSTACK8
          CFI CFA_XSP16 add(XSP16, 39)
//  364   HalLcdWriteString( (char*)buf, option );
        ; Setup parameters for call to function HalLcdWriteString
        MOV     A,#0x27
        LCALL   ?XSTACK_DISP0_8
        LCALL   ?Subroutine4 & 0xFFFF
??CrossCallReturnLabel_5:
        LCALL   `??HalLcdWriteString::?relay`; Banked call to: HalLcdWriteString
//  365 #endif
//  366 }
        MOV     A,#0x19
        LCALL   ?DEALLOC_XSTACK8
          CFI CFA_XSP16 add(XSP16, 14)
        MOV     R7,#0x6
        LJMP    ?BANKED_LEAVE_XDATA
          CFI EndBlock cfiBlock3
//  367 
//  368 /**************************************************************************************************
//  369  * @fn      HalLcdWriteScreen
//  370  *
//  371  * @brief   Write a value to the LCD
//  372  *
//  373  * @param   line1  - string that will be displayed on line 1
//  374  *          line2  - string that will be displayed on line 2
//  375  *
//  376  * @return  None
//  377  **************************************************************************************************/

        RSEG BANKED_CODE:HUGECODE:NOROOT(0)
//  378 void HalLcdWriteScreen( char *line1, char *line2 )
HalLcdWriteScreen:
          CFI Block cfiBlock4 Using cfiCommon0
          CFI Function HalLcdWriteScreen
        CODE
//  379 {
        ; Saved register size: 0
        ; Auto size: 0
//  380   /*
//  381 #if (HAL_LCD == TRUE)
//  382   HalLcdWriteString( line1, 1 );
//  383   HalLcdWriteString( line2, 2 );
//  384 #endif
//  385   */
//  386 }
        LJMP    ?BRET
          CFI EndBlock cfiBlock4
//  387 
//  388 /**************************************************************************************************
//  389  * @fn      HalLcdWriteStringValue
//  390  *
//  391  * @brief   Write a string followed by a value to the LCD
//  392  *
//  393  * @param   title  - Title that will be displayed before the value
//  394  *          value  - value
//  395  *          format - redix
//  396  *          line   - line number
//  397  *
//  398  * @return  None
//  399  **************************************************************************************************/

        RSEG BANKED_CODE:HUGECODE:NOROOT(0)
//  400 void HalLcdWriteStringValue( char *title, uint16 value, uint8 format, uint8 line )
HalLcdWriteStringValue:
          CFI Block cfiBlock5 Using cfiCommon0
          CFI Function HalLcdWriteStringValue
        CODE
//  401 {
        FUNCALL HalLcdWriteStringValue, osal_strlen
        LOCFRAME ISTACK, 0, STACK
        LOCFRAME PSTACK, 0, STACK
        LOCFRAME XSTACK, 40, STACK
        LOCFRAME IOVERLAY, 0, STATIC
        LOCFRAME DOVERLAY, 0, STATIC
        ARGFRAME ISTACK, 0, STACK
        ARGFRAME PSTACK, 0, STACK
        ARGFRAME XSTACK, 40, STACK
        ARGFRAME IOVERLAY, 0, STATIC
        ARGFRAME DOVERLAY, 0, STATIC
        FUNCALL HalLcdWriteStringValue, osal_memcpy
        LOCFRAME ISTACK, 0, STACK
        LOCFRAME PSTACK, 0, STACK
        LOCFRAME XSTACK, 43, STACK
        LOCFRAME IOVERLAY, 0, STATIC
        LOCFRAME DOVERLAY, 0, STATIC
        ARGFRAME ISTACK, 0, STACK
        ARGFRAME PSTACK, 0, STACK
        ARGFRAME XSTACK, 43, STACK
        ARGFRAME IOVERLAY, 0, STATIC
        ARGFRAME DOVERLAY, 0, STATIC
        FUNCALL HalLcdWriteStringValue, _ltoa
        LOCFRAME ISTACK, 0, STACK
        LOCFRAME PSTACK, 0, STACK
        LOCFRAME XSTACK, 42, STACK
        LOCFRAME IOVERLAY, 0, STATIC
        LOCFRAME DOVERLAY, 0, STATIC
        ARGFRAME ISTACK, 0, STACK
        ARGFRAME PSTACK, 0, STACK
        ARGFRAME XSTACK, 42, STACK
        ARGFRAME IOVERLAY, 0, STATIC
        ARGFRAME DOVERLAY, 0, STATIC
        FUNCALL HalLcdWriteStringValue, HalLcdWriteString
        LOCFRAME ISTACK, 0, STACK
        LOCFRAME PSTACK, 0, STACK
        LOCFRAME XSTACK, 40, STACK
        LOCFRAME IOVERLAY, 0, STATIC
        LOCFRAME DOVERLAY, 0, STATIC
        ARGFRAME ISTACK, 0, STACK
        ARGFRAME PSTACK, 0, STACK
        ARGFRAME XSTACK, 40, STACK
        ARGFRAME IOVERLAY, 0, STATIC
        ARGFRAME DOVERLAY, 0, STATIC
        REQUIRE ?V0
        REQUIRE ?V1
        REQUIRE ?V2
        REQUIRE ?V3
        REQUIRE ?V4
        REQUIRE ?V5
        REQUIRE ?V6
        MOV     A,#-0xf
        LCALL   ?BANKED_ENTER_XDATA
          CFI DPH0 load(1, XDATA, add(CFA_XSP16, literal(-1)))
          CFI DPL0 load(1, XDATA, add(CFA_XSP16, literal(-2)))
          CFI ?BRET_EXT load(1, XDATA, add(CFA_XSP16, literal(-3)))
          CFI ?RET_HIGH load(1, XDATA, add(CFA_XSP16, literal(-4)))
          CFI ?RET_LOW load(1, XDATA, add(CFA_XSP16, literal(-5)))
          CFI R7 load(1, XDATA, add(CFA_XSP16, literal(-6)))
          CFI V6 load(1, XDATA, add(CFA_XSP16, literal(-7)))
          CFI V5 load(1, XDATA, add(CFA_XSP16, literal(-8)))
          CFI V4 load(1, XDATA, add(CFA_XSP16, literal(-9)))
          CFI V3 load(1, XDATA, add(CFA_XSP16, literal(-10)))
          CFI V2 load(1, XDATA, add(CFA_XSP16, literal(-11)))
          CFI V1 load(1, XDATA, add(CFA_XSP16, literal(-12)))
          CFI V0 load(1, XDATA, add(CFA_XSP16, literal(-13)))
          CFI VB load(1, XDATA, add(CFA_XSP16, literal(-14)))
          CFI R6 load(1, XDATA, add(CFA_XSP16, literal(-15)))
          CFI CFA_SP SP+0
          CFI CFA_XSP16 add(XSP16, 15)
        ; Saved register size: 15
        ; Auto size: 25
        MOV     A,#-0x19
        LCALL   ?ALLOC_XSTACK8
          CFI CFA_XSP16 add(XSP16, 40)
        MOV     A,R2
        MOV     R6,A
        MOV     A,R3
        MOV     R7,A
        MOV     ?V2,R4
        MOV     ?V3,R5
        MOV     ?V0,R1
//  402   uint8 tmpLen;
//  403   uint8 buf[HAL_LCD_MAX_BUFF];
//  404   uint32 err;
//  405 
//  406   tmpLen = (uint8)osal_strlen( (char*)title );
        ; Setup parameters for call to function osal_strlen
        LCALL   `??osal_strlen::?relay`; Banked call to: osal_strlen
        MOV     A,R2
        MOV     ?V1,A
//  407   osal_memcpy( buf, title, tmpLen );
        ; Setup parameters for call to function osal_memcpy
        MOV     ?V4,R6
        MOV     ?V5,R7
        MOV     ?V6,#0x0
        MOV     R0,#?V4
        LCALL   ?PUSH_XSTACK_I_THREE
          CFI CFA_XSP16 add(XSP16, 43)
        MOV     R4,?V1
        MOV     R5,#0x0
        MOV     A,#0x3
        LCALL   ?XSTACK_DISP101_8
        LCALL   `??osal_memcpy::?relay`; Banked call to: osal_memcpy
        MOV     A,#0x3
        LCALL   ?DEALLOC_XSTACK8
          CFI CFA_XSP16 add(XSP16, 40)
//  408   buf[tmpLen] = ' ';
        MOV     R0,?V1
        LCALL   ?Subroutine2 & 0xFFFF
//  409   err = (uint32)(value);
//  410   _ltoa( err, &buf[tmpLen+1], format );
??CrossCallReturnLabel_0:
        ; Setup parameters for call to function _ltoa
        INC     DPTR
        MOV     ?V4,DPL
        MOV     ?V5,DPH
        MOV     R0,#?V4
        LCALL   ?PUSH_XSTACK_I_TWO
          CFI CFA_XSP16 add(XSP16, 42)
        MOV     R1,?V0
        MOV     R2,?V2
        MOV     R3,?V3
        CLR     A
        MOV     R4,A
        MOV     R5,A
        LCALL   `??_ltoa::?relay`    ; Banked call to: _ltoa
        MOV     A,#0x2
        LCALL   ?DEALLOC_XSTACK8
          CFI CFA_XSP16 add(XSP16, 40)
//  411   HalLcdWriteString( (char*)buf, line );
        ; Setup parameters for call to function HalLcdWriteString
        MOV     A,#0x28
        LCALL   ?XSTACK_DISP0_8
        LCALL   ?Subroutine4 & 0xFFFF
??CrossCallReturnLabel_6:
        LCALL   `??HalLcdWriteString::?relay`; Banked call to: HalLcdWriteString
//  412   
//  413  /* 
//  414 #if (HAL_LCD == TRUE)
//  415   uint8 tmpLen;
//  416   uint8 buf[HAL_LCD_MAX_BUFF];
//  417   uint32 err;
//  418 
//  419   tmpLen = (uint8)osal_strlen( (char*)title );
//  420   osal_memcpy( buf, title, tmpLen );
//  421   buf[tmpLen] = ' ';
//  422   err = (uint32)(value);
//  423   _ltoa( err, &buf[tmpLen+1], format );
//  424   HalLcdWriteString( (char*)buf, line );		
//  425 #endif
//  426 */
//  427 }
        MOV     A,#0x19
          CFI EndBlock cfiBlock5
        REQUIRE ?Subroutine1
        ; // Fall through to label ?Subroutine1

        RSEG BANKED_CODE:HUGECODE:NOROOT(0)
?Subroutine1:
          CFI Block cfiBlock6 Using cfiCommon0
          CFI NoFunction
          CFI CFA_SP SP+0
          CFI CFA_XSP16 add(XSP16, 40)
          CFI VB load(1, XDATA, add(CFA_XSP16, literal(-14)))
          CFI DPL0 load(1, XDATA, add(CFA_XSP16, literal(-2)))
          CFI DPH0 load(1, XDATA, add(CFA_XSP16, literal(-1)))
          CFI R6 load(1, XDATA, add(CFA_XSP16, literal(-15)))
          CFI R7 load(1, XDATA, add(CFA_XSP16, literal(-6)))
          CFI V0 load(1, XDATA, add(CFA_XSP16, literal(-13)))
          CFI V1 load(1, XDATA, add(CFA_XSP16, literal(-12)))
          CFI V2 load(1, XDATA, add(CFA_XSP16, literal(-11)))
          CFI V3 load(1, XDATA, add(CFA_XSP16, literal(-10)))
          CFI V4 load(1, XDATA, add(CFA_XSP16, literal(-9)))
          CFI V5 load(1, XDATA, add(CFA_XSP16, literal(-8)))
          CFI V6 load(1, XDATA, add(CFA_XSP16, literal(-7)))
          CFI ?BRET_EXT load(1, XDATA, add(CFA_XSP16, literal(-3)))
          CFI ?RET_HIGH load(1, XDATA, add(CFA_XSP16, literal(-4)))
          CFI ?RET_LOW load(1, XDATA, add(CFA_XSP16, literal(-5)))
          CFI Invalid
        LCALL   ?DEALLOC_XSTACK8
          CFI CFA_XSP16 add(XSP16, 15)
          CFI Valid
        MOV     R7,#0x7
        LJMP    ?BANKED_LEAVE_XDATA
          CFI EndBlock cfiBlock6

        RSEG BANKED_CODE:HUGECODE:NOROOT(0)
?Subroutine4:
          CFI Block cfiCond7 Using cfiCommon0
          CFI Function HalLcdWriteValue
          CFI Conditional ??CrossCallReturnLabel_5
          CFI R6 load(1, XDATA, add(CFA_XSP16, literal(-14)))
          CFI VB load(1, XDATA, add(CFA_XSP16, literal(-13)))
          CFI V0 load(1, XDATA, add(CFA_XSP16, literal(-12)))
          CFI V1 load(1, XDATA, add(CFA_XSP16, literal(-11)))
          CFI V2 load(1, XDATA, add(CFA_XSP16, literal(-10)))
          CFI V3 load(1, XDATA, add(CFA_XSP16, literal(-9)))
          CFI V4 load(1, XDATA, add(CFA_XSP16, literal(-8)))
          CFI V5 load(1, XDATA, add(CFA_XSP16, literal(-7)))
          CFI R7 load(1, XDATA, add(CFA_XSP16, literal(-6)))
          CFI ?RET_LOW load(1, XDATA, add(CFA_XSP16, literal(-5)))
          CFI ?RET_HIGH load(1, XDATA, add(CFA_XSP16, literal(-4)))
          CFI ?BRET_EXT load(1, XDATA, add(CFA_XSP16, literal(-3)))
          CFI DPL0 load(1, XDATA, add(CFA_XSP16, literal(-2)))
          CFI DPH0 load(1, XDATA, add(CFA_XSP16, literal(-1)))
          CFI CFA_SP SP+-2
          CFI CFA_XSP16 add(XSP16, 39)
          CFI Block cfiCond8 Using cfiCommon0
          CFI (cfiCond8) Function HalLcdWriteStringValue
          CFI (cfiCond8) Conditional ??CrossCallReturnLabel_6
          CFI (cfiCond8) R6 load(1, XDATA, add(CFA_XSP16, literal(-15)))
          CFI (cfiCond8) VB load(1, XDATA, add(CFA_XSP16, literal(-14)))
          CFI (cfiCond8) V0 load(1, XDATA, add(CFA_XSP16, literal(-13)))
          CFI (cfiCond8) V1 load(1, XDATA, add(CFA_XSP16, literal(-12)))
          CFI (cfiCond8) V2 load(1, XDATA, add(CFA_XSP16, literal(-11)))
          CFI (cfiCond8) V3 load(1, XDATA, add(CFA_XSP16, literal(-10)))
          CFI (cfiCond8) V4 load(1, XDATA, add(CFA_XSP16, literal(-9)))
          CFI (cfiCond8) V5 load(1, XDATA, add(CFA_XSP16, literal(-8)))
          CFI (cfiCond8) V6 load(1, XDATA, add(CFA_XSP16, literal(-7)))
          CFI (cfiCond8) R7 load(1, XDATA, add(CFA_XSP16, literal(-6)))
          CFI (cfiCond8) ?RET_LOW load(1, XDATA, add(CFA_XSP16, literal(-5)))
          CFI (cfiCond8) ?RET_HIGH load(1, XDATA, add(CFA_XSP16, literal(-4)))
          CFI (cfiCond8) ?BRET_EXT load(1, XDATA, add(CFA_XSP16, literal(-3)))
          CFI (cfiCond8) DPL0 load(1, XDATA, add(CFA_XSP16, literal(-2)))
          CFI (cfiCond8) DPH0 load(1, XDATA, add(CFA_XSP16, literal(-1)))
          CFI (cfiCond8) CFA_SP SP+-2
          CFI (cfiCond8) CFA_XSP16 add(XSP16, 40)
          CFI Block cfiCond9 Using cfiCommon0
          CFI (cfiCond9) Function HalLcdWriteStringValueValue
          CFI (cfiCond9) Conditional ??CrossCallReturnLabel_7
          CFI (cfiCond9) R6 load(1, XDATA, add(CFA_XSP16, literal(-19)))
          CFI (cfiCond9) VB load(1, XDATA, add(CFA_XSP16, literal(-18)))
          CFI (cfiCond9) V0 load(1, XDATA, add(CFA_XSP16, literal(-17)))
          CFI (cfiCond9) V1 load(1, XDATA, add(CFA_XSP16, literal(-16)))
          CFI (cfiCond9) V2 load(1, XDATA, add(CFA_XSP16, literal(-15)))
          CFI (cfiCond9) V3 load(1, XDATA, add(CFA_XSP16, literal(-14)))
          CFI (cfiCond9) V4 load(1, XDATA, add(CFA_XSP16, literal(-13)))
          CFI (cfiCond9) V5 load(1, XDATA, add(CFA_XSP16, literal(-12)))
          CFI (cfiCond9) V6 load(1, XDATA, add(CFA_XSP16, literal(-11)))
          CFI (cfiCond9) V7 load(1, XDATA, add(CFA_XSP16, literal(-10)))
          CFI (cfiCond9) V8 load(1, XDATA, add(CFA_XSP16, literal(-9)))
          CFI (cfiCond9) V9 load(1, XDATA, add(CFA_XSP16, literal(-8)))
          CFI (cfiCond9) V10 load(1, XDATA, add(CFA_XSP16, literal(-7)))
          CFI (cfiCond9) R7 load(1, XDATA, add(CFA_XSP16, literal(-6)))
          CFI (cfiCond9) ?RET_LOW load(1, XDATA, add(CFA_XSP16, literal(-5)))
          CFI (cfiCond9) ?RET_HIGH load(1, XDATA, add(CFA_XSP16, literal(-4)))
          CFI (cfiCond9) ?BRET_EXT load(1, XDATA, add(CFA_XSP16, literal(-3)))
          CFI (cfiCond9) DPL0 load(1, XDATA, add(CFA_XSP16, literal(-2)))
          CFI (cfiCond9) DPH0 load(1, XDATA, add(CFA_XSP16, literal(-1)))
          CFI (cfiCond9) CFA_SP SP+-2
          CFI (cfiCond9) CFA_XSP16 add(XSP16, 44)
          CFI Block cfiPicker10 Using cfiCommon1
          CFI (cfiPicker10) NoFunction
          CFI (cfiPicker10) Picker
        MOVX    A,@DPTR
        MOV     R1,A
        MOV     R2,?XSP + 0
        MOV     R3,?XSP + 1
        RET
          CFI EndBlock cfiCond7
          CFI EndBlock cfiCond8
          CFI EndBlock cfiCond9
          CFI EndBlock cfiPicker10
//  428 
//  429 /**************************************************************************************************
//  430  * @fn      HalLcdWriteStringValue
//  431  *
//  432  * @brief   Write a string followed by a value to the LCD
//  433  *
//  434  * @param   title   - Title that will be displayed before the value
//  435  *          value1  - value #1
//  436  *          format1 - redix of value #1
//  437  *          value2  - value #2
//  438  *          format2 - redix of value #2
//  439  *          line    - line number
//  440  *
//  441  * @return  None
//  442  **************************************************************************************************/

        RSEG BANKED_CODE:HUGECODE:NOROOT(0)
//  443 void HalLcdWriteStringValueValue( char *title, uint16 value1, uint8 format1,
HalLcdWriteStringValueValue:
          CFI Block cfiBlock11 Using cfiCommon0
          CFI Function HalLcdWriteStringValueValue
        CODE
//  444                                   uint16 value2, uint8 format2, uint8 line )
//  445 {
        FUNCALL HalLcdWriteStringValueValue, osal_strlen
        LOCFRAME ISTACK, 0, STACK
        LOCFRAME PSTACK, 0, STACK
        LOCFRAME XSTACK, 44, STACK
        LOCFRAME IOVERLAY, 0, STATIC
        LOCFRAME DOVERLAY, 0, STATIC
        ARGFRAME ISTACK, 0, STACK
        ARGFRAME PSTACK, 0, STACK
        ARGFRAME XSTACK, 44, STACK
        ARGFRAME IOVERLAY, 0, STATIC
        ARGFRAME DOVERLAY, 0, STATIC
        FUNCALL HalLcdWriteStringValueValue, osal_memcpy
        LOCFRAME ISTACK, 0, STACK
        LOCFRAME PSTACK, 0, STACK
        LOCFRAME XSTACK, 47, STACK
        LOCFRAME IOVERLAY, 0, STATIC
        LOCFRAME DOVERLAY, 0, STATIC
        ARGFRAME ISTACK, 0, STACK
        ARGFRAME PSTACK, 0, STACK
        ARGFRAME XSTACK, 47, STACK
        ARGFRAME IOVERLAY, 0, STATIC
        ARGFRAME DOVERLAY, 0, STATIC
        FUNCALL HalLcdWriteStringValueValue, _ltoa
        LOCFRAME ISTACK, 0, STACK
        LOCFRAME PSTACK, 0, STACK
        LOCFRAME XSTACK, 46, STACK
        LOCFRAME IOVERLAY, 0, STATIC
        LOCFRAME DOVERLAY, 0, STATIC
        ARGFRAME ISTACK, 0, STACK
        ARGFRAME PSTACK, 0, STACK
        ARGFRAME XSTACK, 46, STACK
        ARGFRAME IOVERLAY, 0, STATIC
        ARGFRAME DOVERLAY, 0, STATIC
        FUNCALL HalLcdWriteStringValueValue, osal_strlen
        LOCFRAME ISTACK, 0, STACK
        LOCFRAME PSTACK, 0, STACK
        LOCFRAME XSTACK, 44, STACK
        LOCFRAME IOVERLAY, 0, STATIC
        LOCFRAME DOVERLAY, 0, STATIC
        ARGFRAME ISTACK, 0, STACK
        ARGFRAME PSTACK, 0, STACK
        ARGFRAME XSTACK, 44, STACK
        ARGFRAME IOVERLAY, 0, STATIC
        ARGFRAME DOVERLAY, 0, STATIC
        FUNCALL HalLcdWriteStringValueValue, _ltoa
        LOCFRAME ISTACK, 0, STACK
        LOCFRAME PSTACK, 0, STACK
        LOCFRAME XSTACK, 46, STACK
        LOCFRAME IOVERLAY, 0, STATIC
        LOCFRAME DOVERLAY, 0, STATIC
        ARGFRAME ISTACK, 0, STACK
        ARGFRAME PSTACK, 0, STACK
        ARGFRAME XSTACK, 46, STACK
        ARGFRAME IOVERLAY, 0, STATIC
        ARGFRAME DOVERLAY, 0, STATIC
        FUNCALL HalLcdWriteStringValueValue, HalLcdWriteString
        LOCFRAME ISTACK, 0, STACK
        LOCFRAME PSTACK, 0, STACK
        LOCFRAME XSTACK, 44, STACK
        LOCFRAME IOVERLAY, 0, STATIC
        LOCFRAME DOVERLAY, 0, STATIC
        ARGFRAME ISTACK, 0, STACK
        ARGFRAME PSTACK, 0, STACK
        ARGFRAME XSTACK, 44, STACK
        ARGFRAME IOVERLAY, 0, STATIC
        ARGFRAME DOVERLAY, 0, STATIC
        REQUIRE ?V0
        REQUIRE ?V2
        REQUIRE ?V3
        REQUIRE ?V4
        REQUIRE ?V5
        REQUIRE ?V8
        REQUIRE ?V9
        REQUIRE ?V10
        MOV     A,#-0x13
        LCALL   ?BANKED_ENTER_XDATA
          CFI DPH0 load(1, XDATA, add(CFA_XSP16, literal(-1)))
          CFI DPL0 load(1, XDATA, add(CFA_XSP16, literal(-2)))
          CFI ?BRET_EXT load(1, XDATA, add(CFA_XSP16, literal(-3)))
          CFI ?RET_HIGH load(1, XDATA, add(CFA_XSP16, literal(-4)))
          CFI ?RET_LOW load(1, XDATA, add(CFA_XSP16, literal(-5)))
          CFI R7 load(1, XDATA, add(CFA_XSP16, literal(-6)))
          CFI V10 load(1, XDATA, add(CFA_XSP16, literal(-7)))
          CFI V9 load(1, XDATA, add(CFA_XSP16, literal(-8)))
          CFI V8 load(1, XDATA, add(CFA_XSP16, literal(-9)))
          CFI V7 load(1, XDATA, add(CFA_XSP16, literal(-10)))
          CFI V6 load(1, XDATA, add(CFA_XSP16, literal(-11)))
          CFI V5 load(1, XDATA, add(CFA_XSP16, literal(-12)))
          CFI V4 load(1, XDATA, add(CFA_XSP16, literal(-13)))
          CFI V3 load(1, XDATA, add(CFA_XSP16, literal(-14)))
          CFI V2 load(1, XDATA, add(CFA_XSP16, literal(-15)))
          CFI V1 load(1, XDATA, add(CFA_XSP16, literal(-16)))
          CFI V0 load(1, XDATA, add(CFA_XSP16, literal(-17)))
          CFI VB load(1, XDATA, add(CFA_XSP16, literal(-18)))
          CFI R6 load(1, XDATA, add(CFA_XSP16, literal(-19)))
          CFI CFA_SP SP+0
          CFI CFA_XSP16 add(XSP16, 19)
        ; Saved register size: 19
        ; Auto size: 25
        MOV     A,#-0x19
        LCALL   ?ALLOC_XSTACK8
          CFI CFA_XSP16 add(XSP16, 44)
        MOV     A,R2
        MOV     R6,A
        MOV     A,R3
        MOV     R7,A
        MOV     ?V4,R4
        MOV     ?V5,R5
        MOV     ?V0,R1
//  446 
//  447 #if (HAL_LCD == TRUE)
//  448 
//  449   uint8 tmpLen;
//  450   uint8 buf[HAL_LCD_MAX_BUFF];
//  451   uint32 err;
//  452 
//  453   tmpLen = (uint8)osal_strlen( (char*)title );
        ; Setup parameters for call to function osal_strlen
        LCALL   `??osal_strlen::?relay`; Banked call to: osal_strlen
        MOV     A,R2
        MOV     ?V2,A
//  454   if ( tmpLen )
        JZ      ??HalLcdWriteStringValueValue_0
//  455   {
//  456     osal_memcpy( buf, title, tmpLen );
        ; Setup parameters for call to function osal_memcpy
        MOV     ?V8,R6
        MOV     ?V9,R7
        MOV     ?V10,#0x0
        MOV     R0,#?V8
        LCALL   ?PUSH_XSTACK_I_THREE
          CFI CFA_XSP16 add(XSP16, 47)
        MOV     R4,?V2
        MOV     R5,#0x0
        MOV     A,#0x3
        LCALL   ?XSTACK_DISP101_8
        LCALL   `??osal_memcpy::?relay`; Banked call to: osal_memcpy
        MOV     A,#0x3
        LCALL   ?DEALLOC_XSTACK8
          CFI CFA_XSP16 add(XSP16, 44)
//  457     buf[tmpLen++] = ' ';
        MOV     R0,?V2
        LCALL   ?Subroutine2 & 0xFFFF
//  458   }
??CrossCallReturnLabel_1:
        INC     ?V2
//  459 
//  460   err = (uint32)(value1);
//  461   _ltoa( err, &buf[tmpLen], format1 );
??HalLcdWriteStringValueValue_0:
        ; Setup parameters for call to function _ltoa
        MOV     R0,?V2
        LCALL   ?Subroutine3 & 0xFFFF
??CrossCallReturnLabel_3:
        LCALL   ?PUSH_XSTACK_I_TWO
          CFI CFA_XSP16 add(XSP16, 46)
        MOV     R1,?V0
        MOV     R2,?V4
        MOV     R3,?V5
        CLR     A
        MOV     R4,A
        MOV     R5,A
        LCALL   `??_ltoa::?relay`    ; Banked call to: _ltoa
        MOV     A,#0x2
        LCALL   ?DEALLOC_XSTACK8
          CFI CFA_XSP16 add(XSP16, 44)
//  462   tmpLen = (uint8)osal_strlen( (char*)buf );
        ; Setup parameters for call to function osal_strlen
        MOV     R2,?XSP + 0
        MOV     R3,?XSP + 1
        LCALL   `??osal_strlen::?relay`; Banked call to: osal_strlen
        MOV     A,R2
        MOV     ?V2,A
//  463 
//  464   buf[tmpLen++] = ',';
        MOV     R0,A
        MOV     DPL,?XSP + 0
        MOV     DPH,?XSP + 1
        MOV     A,DPL
        ADD     A,R2
        MOV     DPL,A
        CLR     A
        ADDC    A,DPH
        MOV     DPH,A
        MOV     A,#0x2c
        MOVX    @DPTR,A
//  465   buf[tmpLen++] = ' ';
        INC     R0
        LCALL   ?Subroutine2 & 0xFFFF
//  466   err = (uint32)(value2);
//  467   _ltoa( err, &buf[tmpLen], format2 );
??CrossCallReturnLabel_2:
        ; Setup parameters for call to function _ltoa
        INC     R0
        LCALL   ?Subroutine3 & 0xFFFF
??CrossCallReturnLabel_4:
        LCALL   ?PUSH_XSTACK_I_TWO
          CFI CFA_XSP16 add(XSP16, 46)
        MOV     A,#0x30
        LCALL   ?XSTACK_DISP0_8
        MOVX    A,@DPTR
        MOV     R1,A
        MOV     A,#0x2e
        LCALL   ?XSTACK_DISP0_8
        MOVX    A,@DPTR
        MOV     ?V2,A
        INC     DPTR
        MOVX    A,@DPTR
        MOV     R2,?V2
        MOV     R3,A
        CLR     A
        MOV     R4,A
        MOV     R5,A
        LCALL   `??_ltoa::?relay`    ; Banked call to: _ltoa
        MOV     A,#0x2
        LCALL   ?DEALLOC_XSTACK8
          CFI CFA_XSP16 add(XSP16, 44)
//  468 
//  469   HalLcdWriteString( (char *)buf, line );		
        ; Setup parameters for call to function HalLcdWriteString
        MOV     A,#0x2f
        LCALL   ?XSTACK_DISP0_8
        LCALL   ?Subroutine4 & 0xFFFF
??CrossCallReturnLabel_7:
        LCALL   `??HalLcdWriteString::?relay`; Banked call to: HalLcdWriteString
//  470 
//  471 #endif
//  472 }
        MOV     A,#0x19
        LCALL   ?DEALLOC_XSTACK8
          CFI CFA_XSP16 add(XSP16, 19)
        MOV     R7,#0xb
        LJMP    ?BANKED_LEAVE_XDATA
          CFI EndBlock cfiBlock11

        RSEG BANKED_CODE:HUGECODE:NOROOT(0)
?Subroutine3:
          CFI Block cfiCond12 Using cfiCommon0
          CFI Function HalLcdWriteStringValueValue
          CFI Conditional ??CrossCallReturnLabel_3
          CFI R6 load(1, XDATA, add(CFA_XSP16, literal(-19)))
          CFI VB load(1, XDATA, add(CFA_XSP16, literal(-18)))
          CFI V0 load(1, XDATA, add(CFA_XSP16, literal(-17)))
          CFI V1 load(1, XDATA, add(CFA_XSP16, literal(-16)))
          CFI V2 load(1, XDATA, add(CFA_XSP16, literal(-15)))
          CFI V3 load(1, XDATA, add(CFA_XSP16, literal(-14)))
          CFI V4 load(1, XDATA, add(CFA_XSP16, literal(-13)))
          CFI V5 load(1, XDATA, add(CFA_XSP16, literal(-12)))
          CFI V6 load(1, XDATA, add(CFA_XSP16, literal(-11)))
          CFI V7 load(1, XDATA, add(CFA_XSP16, literal(-10)))
          CFI V8 load(1, XDATA, add(CFA_XSP16, literal(-9)))
          CFI V9 load(1, XDATA, add(CFA_XSP16, literal(-8)))
          CFI V10 load(1, XDATA, add(CFA_XSP16, literal(-7)))
          CFI R7 load(1, XDATA, add(CFA_XSP16, literal(-6)))
          CFI ?RET_LOW load(1, XDATA, add(CFA_XSP16, literal(-5)))
          CFI ?RET_HIGH load(1, XDATA, add(CFA_XSP16, literal(-4)))
          CFI ?BRET_EXT load(1, XDATA, add(CFA_XSP16, literal(-3)))
          CFI DPL0 load(1, XDATA, add(CFA_XSP16, literal(-2)))
          CFI DPH0 load(1, XDATA, add(CFA_XSP16, literal(-1)))
          CFI CFA_SP SP+-2
          CFI CFA_XSP16 add(XSP16, 44)
          CFI Block cfiCond13 Using cfiCommon0
          CFI (cfiCond13) Function HalLcdWriteStringValueValue
          CFI (cfiCond13) Conditional ??CrossCallReturnLabel_4
          CFI (cfiCond13) R6 load(1, XDATA, add(CFA_XSP16, literal(-19)))
          CFI (cfiCond13) VB load(1, XDATA, add(CFA_XSP16, literal(-18)))
          CFI (cfiCond13) V0 load(1, XDATA, add(CFA_XSP16, literal(-17)))
          CFI (cfiCond13) V1 load(1, XDATA, add(CFA_XSP16, literal(-16)))
          CFI (cfiCond13) V2 load(1, XDATA, add(CFA_XSP16, literal(-15)))
          CFI (cfiCond13) V3 load(1, XDATA, add(CFA_XSP16, literal(-14)))
          CFI (cfiCond13) V4 load(1, XDATA, add(CFA_XSP16, literal(-13)))
          CFI (cfiCond13) V5 load(1, XDATA, add(CFA_XSP16, literal(-12)))
          CFI (cfiCond13) V6 load(1, XDATA, add(CFA_XSP16, literal(-11)))
          CFI (cfiCond13) V7 load(1, XDATA, add(CFA_XSP16, literal(-10)))
          CFI (cfiCond13) V8 load(1, XDATA, add(CFA_XSP16, literal(-9)))
          CFI (cfiCond13) V9 load(1, XDATA, add(CFA_XSP16, literal(-8)))
          CFI (cfiCond13) V10 load(1, XDATA, add(CFA_XSP16, literal(-7)))
          CFI (cfiCond13) R7 load(1, XDATA, add(CFA_XSP16, literal(-6)))
          CFI (cfiCond13) ?RET_LOW load(1, XDATA, add(CFA_XSP16, literal(-5)))
          CFI (cfiCond13) ?RET_HIGH load(1, XDATA, add(CFA_XSP16, literal(-4)))
          CFI (cfiCond13) ?BRET_EXT load(1, XDATA, add(CFA_XSP16, literal(-3)))
          CFI (cfiCond13) DPL0 load(1, XDATA, add(CFA_XSP16, literal(-2)))
          CFI (cfiCond13) DPH0 load(1, XDATA, add(CFA_XSP16, literal(-1)))
          CFI (cfiCond13) CFA_SP SP+-2
          CFI (cfiCond13) CFA_XSP16 add(XSP16, 44)
          CFI Block cfiPicker14 Using cfiCommon1
          CFI (cfiPicker14) NoFunction
          CFI (cfiPicker14) Picker
        MOV     DPL,?XSP + 0
        MOV     DPH,?XSP + 1
        MOV     A,DPL
        ADD     A,R0
        MOV     ?V2,A
        CLR     A
        ADDC    A,DPH
        MOV     ?V3,A
        MOV     R0,#?V2
        RET
          CFI EndBlock cfiCond12
          CFI EndBlock cfiCond13
          CFI EndBlock cfiPicker14

        RSEG BANKED_CODE:HUGECODE:NOROOT(0)
?Subroutine2:
          CFI Block cfiCond15 Using cfiCommon0
          CFI Function HalLcdWriteStringValue
          CFI Conditional ??CrossCallReturnLabel_0
          CFI R6 load(1, XDATA, add(CFA_XSP16, literal(-15)))
          CFI VB load(1, XDATA, add(CFA_XSP16, literal(-14)))
          CFI V0 load(1, XDATA, add(CFA_XSP16, literal(-13)))
          CFI V1 load(1, XDATA, add(CFA_XSP16, literal(-12)))
          CFI V2 load(1, XDATA, add(CFA_XSP16, literal(-11)))
          CFI V3 load(1, XDATA, add(CFA_XSP16, literal(-10)))
          CFI V4 load(1, XDATA, add(CFA_XSP16, literal(-9)))
          CFI V5 load(1, XDATA, add(CFA_XSP16, literal(-8)))
          CFI V6 load(1, XDATA, add(CFA_XSP16, literal(-7)))
          CFI R7 load(1, XDATA, add(CFA_XSP16, literal(-6)))
          CFI ?RET_LOW load(1, XDATA, add(CFA_XSP16, literal(-5)))
          CFI ?RET_HIGH load(1, XDATA, add(CFA_XSP16, literal(-4)))
          CFI ?BRET_EXT load(1, XDATA, add(CFA_XSP16, literal(-3)))
          CFI DPL0 load(1, XDATA, add(CFA_XSP16, literal(-2)))
          CFI DPH0 load(1, XDATA, add(CFA_XSP16, literal(-1)))
          CFI CFA_SP SP+-2
          CFI CFA_XSP16 add(XSP16, 40)
          CFI Block cfiCond16 Using cfiCommon0
          CFI (cfiCond16) Function HalLcdWriteStringValueValue
          CFI (cfiCond16) Conditional ??CrossCallReturnLabel_1
          CFI (cfiCond16) R6 load(1, XDATA, add(CFA_XSP16, literal(-19)))
          CFI (cfiCond16) VB load(1, XDATA, add(CFA_XSP16, literal(-18)))
          CFI (cfiCond16) V0 load(1, XDATA, add(CFA_XSP16, literal(-17)))
          CFI (cfiCond16) V1 load(1, XDATA, add(CFA_XSP16, literal(-16)))
          CFI (cfiCond16) V2 load(1, XDATA, add(CFA_XSP16, literal(-15)))
          CFI (cfiCond16) V3 load(1, XDATA, add(CFA_XSP16, literal(-14)))
          CFI (cfiCond16) V4 load(1, XDATA, add(CFA_XSP16, literal(-13)))
          CFI (cfiCond16) V5 load(1, XDATA, add(CFA_XSP16, literal(-12)))
          CFI (cfiCond16) V6 load(1, XDATA, add(CFA_XSP16, literal(-11)))
          CFI (cfiCond16) V7 load(1, XDATA, add(CFA_XSP16, literal(-10)))
          CFI (cfiCond16) V8 load(1, XDATA, add(CFA_XSP16, literal(-9)))
          CFI (cfiCond16) V9 load(1, XDATA, add(CFA_XSP16, literal(-8)))
          CFI (cfiCond16) V10 load(1, XDATA, add(CFA_XSP16, literal(-7)))
          CFI (cfiCond16) R7 load(1, XDATA, add(CFA_XSP16, literal(-6)))
          CFI (cfiCond16) ?RET_LOW load(1, XDATA, add(CFA_XSP16, literal(-5)))
          CFI (cfiCond16) ?RET_HIGH load(1, XDATA, add(CFA_XSP16, literal(-4)))
          CFI (cfiCond16) ?BRET_EXT load(1, XDATA, add(CFA_XSP16, literal(-3)))
          CFI (cfiCond16) DPL0 load(1, XDATA, add(CFA_XSP16, literal(-2)))
          CFI (cfiCond16) DPH0 load(1, XDATA, add(CFA_XSP16, literal(-1)))
          CFI (cfiCond16) CFA_SP SP+-2
          CFI (cfiCond16) CFA_XSP16 add(XSP16, 44)
          CFI Block cfiCond17 Using cfiCommon0
          CFI (cfiCond17) Function HalLcdWriteStringValueValue
          CFI (cfiCond17) Conditional ??CrossCallReturnLabel_2
          CFI (cfiCond17) R6 load(1, XDATA, add(CFA_XSP16, literal(-19)))
          CFI (cfiCond17) VB load(1, XDATA, add(CFA_XSP16, literal(-18)))
          CFI (cfiCond17) V0 load(1, XDATA, add(CFA_XSP16, literal(-17)))
          CFI (cfiCond17) V1 load(1, XDATA, add(CFA_XSP16, literal(-16)))
          CFI (cfiCond17) V2 load(1, XDATA, add(CFA_XSP16, literal(-15)))
          CFI (cfiCond17) V3 load(1, XDATA, add(CFA_XSP16, literal(-14)))
          CFI (cfiCond17) V4 load(1, XDATA, add(CFA_XSP16, literal(-13)))
          CFI (cfiCond17) V5 load(1, XDATA, add(CFA_XSP16, literal(-12)))
          CFI (cfiCond17) V6 load(1, XDATA, add(CFA_XSP16, literal(-11)))
          CFI (cfiCond17) V7 load(1, XDATA, add(CFA_XSP16, literal(-10)))
          CFI (cfiCond17) V8 load(1, XDATA, add(CFA_XSP16, literal(-9)))
          CFI (cfiCond17) V9 load(1, XDATA, add(CFA_XSP16, literal(-8)))
          CFI (cfiCond17) V10 load(1, XDATA, add(CFA_XSP16, literal(-7)))
          CFI (cfiCond17) R7 load(1, XDATA, add(CFA_XSP16, literal(-6)))
          CFI (cfiCond17) ?RET_LOW load(1, XDATA, add(CFA_XSP16, literal(-5)))
          CFI (cfiCond17) ?RET_HIGH load(1, XDATA, add(CFA_XSP16, literal(-4)))
          CFI (cfiCond17) ?BRET_EXT load(1, XDATA, add(CFA_XSP16, literal(-3)))
          CFI (cfiCond17) DPL0 load(1, XDATA, add(CFA_XSP16, literal(-2)))
          CFI (cfiCond17) DPH0 load(1, XDATA, add(CFA_XSP16, literal(-1)))
          CFI (cfiCond17) CFA_SP SP+-2
          CFI (cfiCond17) CFA_XSP16 add(XSP16, 44)
          CFI Block cfiPicker18 Using cfiCommon1
          CFI (cfiPicker18) NoFunction
          CFI (cfiPicker18) Picker
        LCALL   ?Subroutine5 & 0xFFFF
??CrossCallReturnLabel_9:
        MOV     A,#0x20
        MOVX    @DPTR,A
        RET
          CFI EndBlock cfiCond15
          CFI EndBlock cfiCond16
          CFI EndBlock cfiCond17
          CFI EndBlock cfiPicker18
//  473 
//  474 /**************************************************************************************************
//  475  * @fn      HalLcdDisplayPercentBar
//  476  *
//  477  * @brief   Display percentage bar on the LCD
//  478  *
//  479  * @param   title   -
//  480  *          value   -
//  481  *
//  482  * @return  None
//  483  **************************************************************************************************/

        RSEG BANKED_CODE:HUGECODE:NOROOT(0)
//  484 void HalLcdDisplayPercentBar( char *title, uint8 value )
HalLcdDisplayPercentBar:
          CFI Block cfiBlock19 Using cfiCommon0
          CFI Function HalLcdDisplayPercentBar
        CODE
//  485 {
        FUNCALL HalLcdDisplayPercentBar, HalLcdWriteString
        LOCFRAME ISTACK, 0, STACK
        LOCFRAME PSTACK, 0, STACK
        LOCFRAME XSTACK, 32, STACK
        LOCFRAME IOVERLAY, 0, STATIC
        LOCFRAME DOVERLAY, 0, STATIC
        ARGFRAME ISTACK, 0, STACK
        ARGFRAME PSTACK, 0, STACK
        ARGFRAME XSTACK, 32, STACK
        ARGFRAME IOVERLAY, 0, STATIC
        ARGFRAME DOVERLAY, 0, STATIC
        FUNCALL HalLcdDisplayPercentBar, osal_memcpy
        LOCFRAME ISTACK, 0, STACK
        LOCFRAME PSTACK, 0, STACK
        LOCFRAME XSTACK, 35, STACK
        LOCFRAME IOVERLAY, 0, STATIC
        LOCFRAME DOVERLAY, 0, STATIC
        ARGFRAME ISTACK, 0, STACK
        ARGFRAME PSTACK, 0, STACK
        ARGFRAME XSTACK, 35, STACK
        ARGFRAME IOVERLAY, 0, STATIC
        ARGFRAME DOVERLAY, 0, STATIC
        FUNCALL HalLcdDisplayPercentBar, _ltoa
        LOCFRAME ISTACK, 0, STACK
        LOCFRAME PSTACK, 0, STACK
        LOCFRAME XSTACK, 34, STACK
        LOCFRAME IOVERLAY, 0, STATIC
        LOCFRAME DOVERLAY, 0, STATIC
        ARGFRAME ISTACK, 0, STACK
        ARGFRAME PSTACK, 0, STACK
        ARGFRAME XSTACK, 34, STACK
        ARGFRAME IOVERLAY, 0, STATIC
        ARGFRAME DOVERLAY, 0, STATIC
        FUNCALL HalLcdDisplayPercentBar, HalLcdWriteString
        LOCFRAME ISTACK, 0, STACK
        LOCFRAME PSTACK, 0, STACK
        LOCFRAME XSTACK, 32, STACK
        LOCFRAME IOVERLAY, 0, STATIC
        LOCFRAME DOVERLAY, 0, STATIC
        ARGFRAME ISTACK, 0, STACK
        ARGFRAME PSTACK, 0, STACK
        ARGFRAME XSTACK, 32, STACK
        ARGFRAME IOVERLAY, 0, STATIC
        ARGFRAME DOVERLAY, 0, STATIC
        REQUIRE ?V0
        REQUIRE ?V1
        REQUIRE ?V4
        REQUIRE ?V5
        REQUIRE ?V6
        MOV     A,#-0xf
        LCALL   ?BANKED_ENTER_XDATA
          CFI DPH0 load(1, XDATA, add(CFA_XSP16, literal(-1)))
          CFI DPL0 load(1, XDATA, add(CFA_XSP16, literal(-2)))
          CFI ?BRET_EXT load(1, XDATA, add(CFA_XSP16, literal(-3)))
          CFI ?RET_HIGH load(1, XDATA, add(CFA_XSP16, literal(-4)))
          CFI ?RET_LOW load(1, XDATA, add(CFA_XSP16, literal(-5)))
          CFI R7 load(1, XDATA, add(CFA_XSP16, literal(-6)))
          CFI V6 load(1, XDATA, add(CFA_XSP16, literal(-7)))
          CFI V5 load(1, XDATA, add(CFA_XSP16, literal(-8)))
          CFI V4 load(1, XDATA, add(CFA_XSP16, literal(-9)))
          CFI V3 load(1, XDATA, add(CFA_XSP16, literal(-10)))
          CFI V2 load(1, XDATA, add(CFA_XSP16, literal(-11)))
          CFI V1 load(1, XDATA, add(CFA_XSP16, literal(-12)))
          CFI V0 load(1, XDATA, add(CFA_XSP16, literal(-13)))
          CFI VB load(1, XDATA, add(CFA_XSP16, literal(-14)))
          CFI R6 load(1, XDATA, add(CFA_XSP16, literal(-15)))
          CFI CFA_SP SP+0
          CFI CFA_XSP16 add(XSP16, 15)
        ; Saved register size: 15
        ; Auto size: 17
        MOV     A,#-0x11
        LCALL   ?ALLOC_XSTACK8
          CFI CFA_XSP16 add(XSP16, 32)
        MOV     A,R1
        MOV     R6,A
//  486 #if (HAL_LCD == TRUE)
//  487 
//  488   uint8 percent;
//  489   uint8 leftOver;
//  490   uint8 buf[17];
//  491   uint32 err;
//  492   uint8 x;
//  493 
//  494   /* Write the title: */
//  495   HalLcdWriteString( title, HAL_LCD_LINE_1 );
        ; Setup parameters for call to function HalLcdWriteString
        MOV     R1,#0x1
        LCALL   `??HalLcdWriteString::?relay`; Banked call to: HalLcdWriteString
//  496 
//  497   if ( value > 100 )
        MOV     A,R6
        CLR     C
        SUBB    A,#0x65
        JC      ??HalLcdDisplayPercentBar_0
//  498     value = 100;
        MOV     R6,#0x64
//  499 
//  500   /* convert to blocks */
//  501   percent = (uint8)(value / 10);
??HalLcdDisplayPercentBar_0:
        MOV     B,#0xa
        MOV     A,R6
        DIV     AB
        MOV     ?V0,A
//  502   leftOver = (uint8)(value % 10);
        MOV     A,R6
        MOV     B,#0xa
        DIV     AB
        MOV     A,B
        MOV     ?V1,A
//  503 
//  504   /* Make window */
//  505   osal_memcpy( buf, "[          ]  ", 15 );
        ; Setup parameters for call to function osal_memcpy
        MOV     ?V4,#`?<Constant "[          ]  ">` & 0xff
        MOV     ?V5,#(`?<Constant "[          ]  ">` >> 8) & 0xff
        MOV     ?V6,#0x0
        MOV     R0,#?V4
        LCALL   ?PUSH_XSTACK_I_THREE
          CFI CFA_XSP16 add(XSP16, 35)
        MOV     R4,#0xf
        MOV     R5,#0x0
        MOV     A,#0x3
        LCALL   ?XSTACK_DISP101_8
        LCALL   `??osal_memcpy::?relay`; Banked call to: osal_memcpy
        MOV     A,#0x3
        LCALL   ?DEALLOC_XSTACK8
          CFI CFA_XSP16 add(XSP16, 32)
//  506 
//  507   for ( x = 0; x < percent; x ++ )
        MOV     R7,#0x0
        MOV     A,?V0
        JZ      ??HalLcdDisplayPercentBar_1
//  508   {
//  509     buf[1+x] = '>';
        MOV     R0,A
        MOV     R1,#0x0
        MOV     R2,#0x3e
        MOV     A,#0x1
        LCALL   ?XSTACK_DISP0_8
??HalLcdDisplayPercentBar_2:
        MOV     A,R2
        MOVX    @DPTR,A
        INC     DPTR
        MOV     A,R0
        ADD     A,#-0x1
        DEC     R0
        MOV     A,R1
        ADDC    A,#-0x1
        MOV     R1,A
        ORL     A,R0
        JNZ     ??HalLcdDisplayPercentBar_2
//  510   }
        MOV     R7,?V0
//  511 
//  512   if ( leftOver >= 5 )
??HalLcdDisplayPercentBar_1:
        MOV     A,?V1
        CLR     C
        SUBB    A,#0x5
        JC      ??HalLcdDisplayPercentBar_3
//  513     buf[1+x] = '+';
        MOV     A,R7
        MOV     R0,A
        LCALL   ?Subroutine5 & 0xFFFF
??CrossCallReturnLabel_8:
        INC     DPTR
        MOV     A,#0x2b
        MOVX    @DPTR,A
//  514 
//  515   err = (uint32)value;
//  516   _ltoa( err, (uint8*)&buf[13], 10 );
??HalLcdDisplayPercentBar_3:
        ; Setup parameters for call to function _ltoa
        MOV     A,#0xd
        LCALL   ?XSTACK_DISP0_8
        MOV     ?V0,DPL
        MOV     ?V1,DPH
        MOV     R0,#?V0
        LCALL   ?PUSH_XSTACK_I_TWO
          CFI CFA_XSP16 add(XSP16, 34)
        MOV     R1,#0xa
        MOV     A,R6
        MOV     R2,A
        CLR     A
        MOV     R3,A
        MOV     R4,A
        MOV     R5,A
        LCALL   `??_ltoa::?relay`    ; Banked call to: _ltoa
        MOV     A,#0x2
        LCALL   ?DEALLOC_XSTACK8
          CFI CFA_XSP16 add(XSP16, 32)
//  517 
//  518   HalLcdWriteString( (char*)buf, HAL_LCD_LINE_2 );
        ; Setup parameters for call to function HalLcdWriteString
        MOV     R1,#0x2
        MOV     R2,?XSP + 0
        MOV     R3,?XSP + 1
        LCALL   `??HalLcdWriteString::?relay`; Banked call to: HalLcdWriteString
//  519 
//  520 #endif
//  521 
//  522 }
        MOV     A,#0x11
        LJMP    ?Subroutine1 & 0xFFFF
          CFI EndBlock cfiBlock19

        RSEG BANKED_CODE:HUGECODE:NOROOT(0)
?Subroutine5:
          CFI Block cfiCond20 Using cfiCommon0
          CFI Function HalLcdWriteStringValue
          CFI Conditional ??CrossCallReturnLabel_9, ??CrossCallReturnLabel_0
          CFI R6 load(1, XDATA, add(CFA_XSP16, literal(-15)))
          CFI VB load(1, XDATA, add(CFA_XSP16, literal(-14)))
          CFI V0 load(1, XDATA, add(CFA_XSP16, literal(-13)))
          CFI V1 load(1, XDATA, add(CFA_XSP16, literal(-12)))
          CFI V2 load(1, XDATA, add(CFA_XSP16, literal(-11)))
          CFI V3 load(1, XDATA, add(CFA_XSP16, literal(-10)))
          CFI V4 load(1, XDATA, add(CFA_XSP16, literal(-9)))
          CFI V5 load(1, XDATA, add(CFA_XSP16, literal(-8)))
          CFI V6 load(1, XDATA, add(CFA_XSP16, literal(-7)))
          CFI R7 load(1, XDATA, add(CFA_XSP16, literal(-6)))
          CFI ?RET_LOW load(1, XDATA, add(CFA_XSP16, literal(-5)))
          CFI ?RET_HIGH load(1, XDATA, add(CFA_XSP16, literal(-4)))
          CFI ?BRET_EXT load(1, XDATA, add(CFA_XSP16, literal(-3)))
          CFI DPL0 load(1, XDATA, add(CFA_XSP16, literal(-2)))
          CFI DPH0 load(1, XDATA, add(CFA_XSP16, literal(-1)))
          CFI CFA_SP SP+-4
          CFI CFA_XSP16 add(XSP16, 40)
          CFI Block cfiCond21 Using cfiCommon0
          CFI (cfiCond21) Function HalLcdWriteStringValueValue
          CFI (cfiCond21) Conditional ??CrossCallReturnLabel_9, ??CrossCallReturnLabel_1
          CFI (cfiCond21) R6 load(1, XDATA, add(CFA_XSP16, literal(-19)))
          CFI (cfiCond21) VB load(1, XDATA, add(CFA_XSP16, literal(-18)))
          CFI (cfiCond21) V0 load(1, XDATA, add(CFA_XSP16, literal(-17)))
          CFI (cfiCond21) V1 load(1, XDATA, add(CFA_XSP16, literal(-16)))
          CFI (cfiCond21) V2 load(1, XDATA, add(CFA_XSP16, literal(-15)))
          CFI (cfiCond21) V3 load(1, XDATA, add(CFA_XSP16, literal(-14)))
          CFI (cfiCond21) V4 load(1, XDATA, add(CFA_XSP16, literal(-13)))
          CFI (cfiCond21) V5 load(1, XDATA, add(CFA_XSP16, literal(-12)))
          CFI (cfiCond21) V6 load(1, XDATA, add(CFA_XSP16, literal(-11)))
          CFI (cfiCond21) V7 load(1, XDATA, add(CFA_XSP16, literal(-10)))
          CFI (cfiCond21) V8 load(1, XDATA, add(CFA_XSP16, literal(-9)))
          CFI (cfiCond21) V9 load(1, XDATA, add(CFA_XSP16, literal(-8)))
          CFI (cfiCond21) V10 load(1, XDATA, add(CFA_XSP16, literal(-7)))
          CFI (cfiCond21) R7 load(1, XDATA, add(CFA_XSP16, literal(-6)))
          CFI (cfiCond21) ?RET_LOW load(1, XDATA, add(CFA_XSP16, literal(-5)))
          CFI (cfiCond21) ?RET_HIGH load(1, XDATA, add(CFA_XSP16, literal(-4)))
          CFI (cfiCond21) ?BRET_EXT load(1, XDATA, add(CFA_XSP16, literal(-3)))
          CFI (cfiCond21) DPL0 load(1, XDATA, add(CFA_XSP16, literal(-2)))
          CFI (cfiCond21) DPH0 load(1, XDATA, add(CFA_XSP16, literal(-1)))
          CFI (cfiCond21) CFA_SP SP+-4
          CFI (cfiCond21) CFA_XSP16 add(XSP16, 44)
          CFI Block cfiCond22 Using cfiCommon0
          CFI (cfiCond22) Function HalLcdWriteStringValueValue
          CFI (cfiCond22) Conditional ??CrossCallReturnLabel_9, ??CrossCallReturnLabel_2
          CFI (cfiCond22) R6 load(1, XDATA, add(CFA_XSP16, literal(-19)))
          CFI (cfiCond22) VB load(1, XDATA, add(CFA_XSP16, literal(-18)))
          CFI (cfiCond22) V0 load(1, XDATA, add(CFA_XSP16, literal(-17)))
          CFI (cfiCond22) V1 load(1, XDATA, add(CFA_XSP16, literal(-16)))
          CFI (cfiCond22) V2 load(1, XDATA, add(CFA_XSP16, literal(-15)))
          CFI (cfiCond22) V3 load(1, XDATA, add(CFA_XSP16, literal(-14)))
          CFI (cfiCond22) V4 load(1, XDATA, add(CFA_XSP16, literal(-13)))
          CFI (cfiCond22) V5 load(1, XDATA, add(CFA_XSP16, literal(-12)))
          CFI (cfiCond22) V6 load(1, XDATA, add(CFA_XSP16, literal(-11)))
          CFI (cfiCond22) V7 load(1, XDATA, add(CFA_XSP16, literal(-10)))
          CFI (cfiCond22) V8 load(1, XDATA, add(CFA_XSP16, literal(-9)))
          CFI (cfiCond22) V9 load(1, XDATA, add(CFA_XSP16, literal(-8)))
          CFI (cfiCond22) V10 load(1, XDATA, add(CFA_XSP16, literal(-7)))
          CFI (cfiCond22) R7 load(1, XDATA, add(CFA_XSP16, literal(-6)))
          CFI (cfiCond22) ?RET_LOW load(1, XDATA, add(CFA_XSP16, literal(-5)))
          CFI (cfiCond22) ?RET_HIGH load(1, XDATA, add(CFA_XSP16, literal(-4)))
          CFI (cfiCond22) ?BRET_EXT load(1, XDATA, add(CFA_XSP16, literal(-3)))
          CFI (cfiCond22) DPL0 load(1, XDATA, add(CFA_XSP16, literal(-2)))
          CFI (cfiCond22) DPH0 load(1, XDATA, add(CFA_XSP16, literal(-1)))
          CFI (cfiCond22) CFA_SP SP+-4
          CFI (cfiCond22) CFA_XSP16 add(XSP16, 44)
          CFI Block cfiCond23 Using cfiCommon0
          CFI (cfiCond23) Function HalLcdDisplayPercentBar
          CFI (cfiCond23) Conditional ??CrossCallReturnLabel_8
          CFI (cfiCond23) R6 load(1, XDATA, add(CFA_XSP16, literal(-15)))
          CFI (cfiCond23) VB load(1, XDATA, add(CFA_XSP16, literal(-14)))
          CFI (cfiCond23) V0 load(1, XDATA, add(CFA_XSP16, literal(-13)))
          CFI (cfiCond23) V1 load(1, XDATA, add(CFA_XSP16, literal(-12)))
          CFI (cfiCond23) V2 load(1, XDATA, add(CFA_XSP16, literal(-11)))
          CFI (cfiCond23) V3 load(1, XDATA, add(CFA_XSP16, literal(-10)))
          CFI (cfiCond23) V4 load(1, XDATA, add(CFA_XSP16, literal(-9)))
          CFI (cfiCond23) V5 load(1, XDATA, add(CFA_XSP16, literal(-8)))
          CFI (cfiCond23) V6 load(1, XDATA, add(CFA_XSP16, literal(-7)))
          CFI (cfiCond23) R7 load(1, XDATA, add(CFA_XSP16, literal(-6)))
          CFI (cfiCond23) ?RET_LOW load(1, XDATA, add(CFA_XSP16, literal(-5)))
          CFI (cfiCond23) ?RET_HIGH load(1, XDATA, add(CFA_XSP16, literal(-4)))
          CFI (cfiCond23) ?BRET_EXT load(1, XDATA, add(CFA_XSP16, literal(-3)))
          CFI (cfiCond23) DPL0 load(1, XDATA, add(CFA_XSP16, literal(-2)))
          CFI (cfiCond23) DPH0 load(1, XDATA, add(CFA_XSP16, literal(-1)))
          CFI (cfiCond23) CFA_SP SP+-2
          CFI (cfiCond23) CFA_XSP16 add(XSP16, 32)
          CFI Block cfiPicker24 Using cfiCommon1
          CFI (cfiPicker24) NoFunction
          CFI (cfiPicker24) Picker
        MOV     DPL,?XSP + 0
        MOV     DPH,?XSP + 1
        MOV     A,DPL
        ADD     A,R0
        MOV     DPL,A
        CLR     A
        ADDC    A,DPH
        MOV     DPH,A
        RET
          CFI EndBlock cfiCond20
          CFI EndBlock cfiCond21
          CFI EndBlock cfiCond22
          CFI EndBlock cfiCond23
          CFI EndBlock cfiPicker24
//  523 
//  524 #if (HAL_LCD == TRUE)
//  525 /**************************************************************************************************
//  526  *                                    HARDWARE LCD
//  527  **************************************************************************************************/
//  528 
//  529 /**************************************************************************************************
//  530  * @fn      halLcd_ConfigIO
//  531  *
//  532  * @brief   Configure IO lines needed for LCD control.
//  533  *
//  534  * @param   None
//  535  *
//  536  * @return  None
//  537  **************************************************************************************************/
//  538 static void halLcd_ConfigIO(void)
//  539 {/*
//  540   /* GPIO configuration *//*
//  541   HAL_CONFIG_IO_OUTPUT(HAL_LCD_MODE_PORT,  HAL_LCD_MODE_PIN,  1);
//  542   HAL_CONFIG_IO_OUTPUT(HAL_LCD_RESET_PORT, HAL_LCD_RESET_PIN, 1);
//  543   HAL_CONFIG_IO_OUTPUT(HAL_LCD_CS_PORT,    HAL_LCD_CS_PIN,    1);
//  544 */
//  545 }
//  546 
//  547 /**************************************************************************************************
//  548  * @fn      halLcd_ConfigSPI
//  549  *
//  550  * @brief   Configure SPI lines needed for talking to LCD.
//  551  *
//  552  * @param   None
//  553  *
//  554  * @return  None
//  555  **************************************************************************************************/
//  556 static void halLcd_ConfigSPI(void)
//  557 {
//  558   /* UART/SPI Peripheral configuration */
//  559 /*
//  560    uint8 baud_exponent;
//  561    uint8 baud_mantissa;
//  562 
//  563   /* Set SPI on UART 1 alternative 2 *//*
//  564   PERCFG |= 0x02;
//  565 
//  566   /* Configure clk, master out and master in lines *//*
//  567   HAL_CONFIG_IO_PERIPHERAL(HAL_LCD_CLK_PORT,  HAL_LCD_CLK_PIN);
//  568   HAL_CONFIG_IO_PERIPHERAL(HAL_LCD_MOSI_PORT, HAL_LCD_MOSI_PIN);
//  569   HAL_CONFIG_IO_PERIPHERAL(HAL_LCD_MISO_PORT, HAL_LCD_MISO_PIN);
//  570 
//  571 
//  572   /* Set SPI speed to 1 MHz (the values assume system clk of 32MHz)
//  573    * Confirm on board that this results in 1MHz spi clk.
//  574    *//*
//  575   baud_exponent = 15;
//  576   baud_mantissa =  0;
//  577 
//  578   /* Configure SPI *//*
//  579   U1UCR  = 0x80;      /* Flush and goto IDLE state. 8-N-1. *//*
//  580   U1CSR  = 0x00;      /* SPI mode, master. *//*
//  581   U1GCR  = HAL_SPI_TRANSFER_MSB_FIRST | HAL_SPI_CLOCK_PHA_0 | HAL_SPI_CLOCK_POL_LO | baud_exponent;
//  582   U1BAUD = baud_mantissa;
//  583   */
//  584 }
//  585 
//  586 /**************************************************************************************************
//  587  * @fn      HalLcd_HW_Init
//  588  *
//  589  * @brief   Initilize HW LCD Driver.
//  590  *
//  591  * @param   None
//  592  *
//  593  * @return  None
//  594  **************************************************************************************************/

        RSEG BANKED_CODE:HUGECODE:NOROOT(0)
//  595 void HalLcd_HW_Init(void)
HalLcd_HW_Init:
          CFI Block cfiBlock25 Using cfiCommon0
          CFI Function HalLcd_HW_Init
        CODE
//  596 {
        ; Saved register size: 0
        ; Auto size: 0
//  597   
//  598   CLKCONCMD =0x00;                                                            //Podesavanje clocka na 32MHz
        MOV     0xc6,#0x0
//  599     
//  600   
//  601     PERCFG = 0x00;                                                              //Podesavanje primarnih funkcija modula 
        MOV     0xf1,#0x0
//  602     P0SEL = 0x0C;                                                               //Podesavanje osnovne ili periferne funkcije odredjenog pina(0-osnovna ; 1-periferna)
        MOV     0xf3,#0xc
//  603     
//  604   
//  605     U0CSR = 0xC0;                                                               //Prvi bit 1 je UART mode
        MOV     0x86,#-0x40
//  606     U0GCR = 0x08;                                                               //Poslednjih 5 bita odredjuje baud rate exponent vrijednost
        MOV     0xc5,#0x8
//  607  
//  608     
//  609     U0BAUD = 0x3A;                                                              //Postavja baud rate na 9600
        MOV     0xc2,#0x3a
//  610     
//  611   
//  612   
//  613   /* Initialize LCD IO lines 
//  614   halLcd_ConfigIO();
//  615 
//  616   /* Initialize SPI 
//  617   halLcd_ConfigSPI();
//  618 
//  619   /* Perform reset 
//  620   LCD_ACTIVATE_RESET();
//  621   HalLcd_HW_WaitUs(15000); // 15 ms
//  622   LCD_RELEASE_RESET();
//  623   HalLcd_HW_WaitUs(15); // 15 us
//  624 
//  625   /* Perform the initialization sequence 
//  626   FUNCTION_SET(CGRAM | COM_FORWARD | THREE_LINE);
//  627 
//  628   /* Set contrast 
//  629   HalLcd_HW_SetContrast(15);
//  630 
//  631   /* Set power 
//  632   SET_POWER_SAVE_MODE(OSC_OFF | POWER_SAVE_ON);
//  633   SET_POWER_CTRL(VOLTAGE_DIVIDER_ON | CONVERTER_AND_REG_ON);
//  634   SET_BIAS_CTRL(BIAS_1_5);
//  635   HalLcd_HW_WaitUs(21000);// 21 ms
//  636 
//  637   /* Clear the display 
//  638   HalLcd_HW_Clear();
//  639   HalLcd_HW_ClearAllSpecChars();
//  640   SET_DISPLAY_CTRL(DISPLAY_CTRL_ON | DISPLAY_CTRL_BLINK_OFF | DISPLAY_CTRL_CURSOR_OFF);
//  641 */
//  642 
//  643 }
        LJMP    ?BRET
          CFI EndBlock cfiBlock25
        REQUIRE CLKCONCMD
        REQUIRE PERCFG
        REQUIRE P0SEL
        REQUIRE U0CSR
        REQUIRE U0GCR
        REQUIRE U0BAUD
//  644 
//  645 /**************************************************************************************************
//  646  * @fn      HalLcd_HW_Control
//  647  *
//  648  * @brief   Write 1 command to the LCD
//  649  *
//  650  * @param   uint8 cmd - command to be written to the LCD
//  651  *
//  652  * @return  None
//  653  **************************************************************************************************/

        RSEG BANKED_CODE:HUGECODE:NOROOT(0)
//  654 void HalLcd_HW_Control(uint8 cmd)
HalLcd_HW_Control:
          CFI Block cfiBlock26 Using cfiCommon0
          CFI Function HalLcd_HW_Control
        CODE
//  655 {/*
        ; Saved register size: 0
        ; Auto size: 0
//  656   LCD_SPI_BEGIN();
//  657   LCD_DO_CONTROL();
//  658   LCD_SPI_TX(cmd);
//  659   LCD_SPI_WAIT_RXRDY();
//  660   LCD_SPI_END();
//  661 */
//  662 }
        LJMP    ?BRET
          CFI EndBlock cfiBlock26
//  663 
//  664 /**************************************************************************************************
//  665  * @fn      HalLcd_HW_Write
//  666  *
//  667  * @brief   Write 1 byte to the LCD
//  668  *
//  669  * @param   uint8 data - data to be written to the LCD
//  670  *
//  671  * @return  None
//  672  **************************************************************************************************/

        RSEG BANKED_CODE:HUGECODE:NOROOT(0)
//  673 void HalLcd_HW_Write(uint8 data)
HalLcd_HW_Write:
          CFI Block cfiBlock27 Using cfiCommon0
          CFI Function HalLcd_HW_Write
        CODE
//  674 {
        ; Saved register size: 0
        ; Auto size: 0
//  675   U0DBUF = data;
        MOV     0xc1,R1
//  676     
//  677     while((U0CSR & 0x01) == 0x01)
??HalLcd_HW_Write_0:
        MOV     A,0x86
        MOV     C,0xE0 /* A   */.0
        JC      ??HalLcd_HW_Write_0
//  678     {
//  679     }
//  680   
//  681   /*
//  682   LCD_SPI_BEGIN();
//  683   LCD_DO_WRITE();
//  684   LCD_SPI_TX(data);
//  685   LCD_SPI_WAIT_RXRDY();
//  686   LCD_SPI_END();
//  687 */
//  688 }
        LJMP    ?BRET
          CFI EndBlock cfiBlock27
        REQUIRE U0DBUF
        REQUIRE U0CSR
//  689 
//  690 /**************************************************************************************************
//  691  * @fn          HalLcd_HW_SetContrast
//  692  *
//  693  * @brief       Set display contrast
//  694  *
//  695  * @param       uint8 value - contrast value
//  696  *
//  697  * @return      none
//  698  **************************************************************************************************/

        RSEG BANKED_CODE:HUGECODE:NOROOT(0)
//  699 void HalLcd_HW_SetContrast(uint8 value)
HalLcd_HW_SetContrast:
          CFI Block cfiBlock28 Using cfiCommon0
          CFI Function HalLcd_HW_SetContrast
        CODE
//  700 {
        ; Saved register size: 0
        ; Auto size: 0
//  701   /*
//  702   SET_ICONRAM_ADDR(CONTRAST_CTRL_REGISTER);
//  703   HalLcd_HW_Write(value);
//  704 */
//  705 }
        LJMP    ?BRET
          CFI EndBlock cfiBlock28
//  706 
//  707 /**************************************************************************************************
//  708  * @fn      HalLcd_HW_Clear
//  709  *
//  710  * @brief   Clear the HW LCD
//  711  *
//  712  * @param   None
//  713  *
//  714  * @return  None
//  715  **************************************************************************************************/

        RSEG BANKED_CODE:HUGECODE:NOROOT(0)
//  716 void HalLcd_HW_Clear(void)
HalLcd_HW_Clear:
          CFI Block cfiBlock29 Using cfiCommon0
          CFI Function HalLcd_HW_Clear
        CODE
//  717 {/*
        ; Saved register size: 0
        ; Auto size: 0
//  718   uint8 n;
//  719 
//  720   SET_DDRAM_ADDR(0x00);
//  721   for (n = 0; n < (LCD_MAX_LINE_COUNT * HAL_LCD_MAX_CHARS); n++)
//  722   {
//  723     HalLcd_HW_Write(' ');
//  724   }
//  725   */
//  726 }
        LJMP    ?BRET
          CFI EndBlock cfiBlock29
//  727 
//  728 /**************************************************************************************************
//  729  * @fn      HalLcd_HW_ClearAllSpecChars
//  730  *
//  731  * @brief   Clear all special chars
//  732  *
//  733  * @param   None
//  734  *
//  735  * @return  None
//  736  **************************************************************************************************/

        RSEG BANKED_CODE:HUGECODE:NOROOT(0)
//  737 void HalLcd_HW_ClearAllSpecChars(void)
HalLcd_HW_ClearAllSpecChars:
          CFI Block cfiBlock30 Using cfiCommon0
          CFI Function HalLcd_HW_ClearAllSpecChars
        CODE
//  738 {
        ; Saved register size: 0
        ; Auto size: 0
//  739   /*
//  740   uint8 n = 0;
//  741 
//  742   SET_GCRAM_CHAR(0);
//  743   for (n = 0; n < (8 * 8); n++)
//  744   {
//  745     HalLcd_HW_Write(0x00);
//  746   }
//  747   */
//  748 }
        LJMP    ?BRET
          CFI EndBlock cfiBlock30
//  749 
//  750 /**************************************************************************************************
//  751  * @fn      HalLcd_HW_WriteChar
//  752  *
//  753  * @brief   Write one char to the display
//  754  *
//  755  * @param   uint8 line - line number that the char will be displayed
//  756  *          uint8 col - colum where the char will be displayed
//  757  *
//  758  * @return  None
//  759  **************************************************************************************************/

        RSEG BANKED_CODE:HUGECODE:NOROOT(0)
//  760 void HalLcd_HW_WriteChar(uint8 line, uint8 col, char text)
HalLcd_HW_WriteChar:
          CFI Block cfiBlock31 Using cfiCommon0
          CFI Function HalLcd_HW_WriteChar
        CODE
//  761 {
        FUNCALL HalLcd_HW_WriteChar, HalLcd_HW_Write
        LOCFRAME ISTACK, 0, STACK
        LOCFRAME PSTACK, 0, STACK
        LOCFRAME XSTACK, 9, STACK
        LOCFRAME IOVERLAY, 0, STATIC
        LOCFRAME DOVERLAY, 0, STATIC
        ARGFRAME ISTACK, 0, STACK
        ARGFRAME PSTACK, 0, STACK
        ARGFRAME XSTACK, 9, STACK
        ARGFRAME IOVERLAY, 0, STATIC
        ARGFRAME DOVERLAY, 0, STATIC
        MOV     A,#-0x9
        LCALL   ?BANKED_ENTER_XDATA
          CFI DPH0 load(1, XDATA, add(CFA_XSP16, literal(-1)))
          CFI DPL0 load(1, XDATA, add(CFA_XSP16, literal(-2)))
          CFI ?BRET_EXT load(1, XDATA, add(CFA_XSP16, literal(-3)))
          CFI ?RET_HIGH load(1, XDATA, add(CFA_XSP16, literal(-4)))
          CFI ?RET_LOW load(1, XDATA, add(CFA_XSP16, literal(-5)))
          CFI R7 load(1, XDATA, add(CFA_XSP16, literal(-6)))
          CFI V0 load(1, XDATA, add(CFA_XSP16, literal(-7)))
          CFI VB load(1, XDATA, add(CFA_XSP16, literal(-8)))
          CFI R6 load(1, XDATA, add(CFA_XSP16, literal(-9)))
          CFI CFA_SP SP+0
          CFI CFA_XSP16 add(XSP16, 9)
        ; Saved register size: 9
        ; Auto size: 0
        MOV     A,R3
//  762   HalLcd_HW_Write(text);
        ; Setup parameters for call to function HalLcd_HW_Write
        MOV     R1,A
        LJMP    ?Subroutine0 & 0xFFFF
//  763   
//  764   /*
//  765   if (col < HAL_LCD_MAX_CHARS)
//  766   {
//  767     SET_DDRAM_ADDR((line - 1) * HAL_LCD_MAX_CHARS + col);
//  768     HalLcd_HW_Write(text);
//  769   }
//  770   else
//  771   {
//  772     return;
//  773   }
//  774   */
//  775 }
          CFI EndBlock cfiBlock31
//  776 
//  777 /**************************************************************************************************
//  778  * @fn          halLcdWriteLine
//  779  *
//  780  * @brief       Write one line on display
//  781  *
//  782  * @param       uint8 line - display line
//  783  *              char *pText - text buffer to write
//  784  *
//  785  * @return      none
//  786  **************************************************************************************************/

        RSEG BANKED_CODE:HUGECODE:NOROOT(0)
//  787 void HalLcd_HW_WriteLine(uint8 line, const char *pText)
HalLcd_HW_WriteLine:
          CFI Block cfiBlock32 Using cfiCommon0
          CFI Function HalLcd_HW_WriteLine
        CODE
//  788 {
        FUNCALL HalLcd_HW_WriteLine, osal_strlen
        LOCFRAME ISTACK, 0, STACK
        LOCFRAME PSTACK, 0, STACK
        LOCFRAME XSTACK, 10, STACK
        LOCFRAME IOVERLAY, 0, STATIC
        LOCFRAME DOVERLAY, 0, STATIC
        ARGFRAME ISTACK, 0, STACK
        ARGFRAME PSTACK, 0, STACK
        ARGFRAME XSTACK, 10, STACK
        ARGFRAME IOVERLAY, 0, STATIC
        ARGFRAME DOVERLAY, 0, STATIC
        FUNCALL HalLcd_HW_WriteLine, HalLcd_HW_Write
        LOCFRAME ISTACK, 0, STACK
        LOCFRAME PSTACK, 0, STACK
        LOCFRAME XSTACK, 10, STACK
        LOCFRAME IOVERLAY, 0, STATIC
        LOCFRAME DOVERLAY, 0, STATIC
        ARGFRAME ISTACK, 0, STACK
        ARGFRAME PSTACK, 0, STACK
        ARGFRAME XSTACK, 10, STACK
        ARGFRAME IOVERLAY, 0, STATIC
        ARGFRAME DOVERLAY, 0, STATIC
        FUNCALL HalLcd_HW_WriteLine, HalLcd_HW_Write
        LOCFRAME ISTACK, 0, STACK
        LOCFRAME PSTACK, 0, STACK
        LOCFRAME XSTACK, 10, STACK
        LOCFRAME IOVERLAY, 0, STATIC
        LOCFRAME DOVERLAY, 0, STATIC
        ARGFRAME ISTACK, 0, STACK
        ARGFRAME PSTACK, 0, STACK
        ARGFRAME XSTACK, 10, STACK
        ARGFRAME IOVERLAY, 0, STATIC
        ARGFRAME DOVERLAY, 0, STATIC
        REQUIRE ?V0
        REQUIRE ?V1
        MOV     A,#-0xa
        LCALL   ?BANKED_ENTER_XDATA
          CFI DPH0 load(1, XDATA, add(CFA_XSP16, literal(-1)))
          CFI DPL0 load(1, XDATA, add(CFA_XSP16, literal(-2)))
          CFI ?BRET_EXT load(1, XDATA, add(CFA_XSP16, literal(-3)))
          CFI ?RET_HIGH load(1, XDATA, add(CFA_XSP16, literal(-4)))
          CFI ?RET_LOW load(1, XDATA, add(CFA_XSP16, literal(-5)))
          CFI R7 load(1, XDATA, add(CFA_XSP16, literal(-6)))
          CFI V1 load(1, XDATA, add(CFA_XSP16, literal(-7)))
          CFI V0 load(1, XDATA, add(CFA_XSP16, literal(-8)))
          CFI VB load(1, XDATA, add(CFA_XSP16, literal(-9)))
          CFI R6 load(1, XDATA, add(CFA_XSP16, literal(-10)))
          CFI CFA_SP SP+0
          CFI CFA_XSP16 add(XSP16, 10)
        ; Saved register size: 10
        ; Auto size: 0
        MOV     A,R2
        MOV     R6,A
        MOV     A,R3
        MOV     R7,A
//  789   uint8 count;
//  790   uint8 totalLength = (uint8)osal_strlen( (char *)pText );
        ; Setup parameters for call to function osal_strlen
        LCALL   `??osal_strlen::?relay`; Banked call to: osal_strlen
        MOV     A,R2
        MOV     ?V1,A
//  791 
//  792   /* Write the content first */
//  793   for (count=0; count<totalLength; count++)
        MOV     ?V0,#0x0
        SJMP    ??HalLcd_HW_WriteLine_0
//  794   {
//  795     HalLcd_HW_WriteChar(line, count, (*(pText++)));
??HalLcd_HW_WriteLine_1:
        ; Setup parameters for call to function HalLcd_HW_Write
        MOV     DPL,R6
        MOV     DPH,R7
        MOVX    A,@DPTR
        MOV     R1,A
        LCALL   `??HalLcd_HW_Write::?relay`; Banked call to: HalLcd_HW_Write
        MOV     DPL,R6
        MOV     DPH,R7
        INC     DPTR
        MOV     R6,DPL
        MOV     R7,DPH
//  796   }
        INC     ?V0
??HalLcd_HW_WriteLine_0:
        MOV     A,?V0
        CLR     C
        SUBB    A,?V1
        JC      ??HalLcd_HW_WriteLine_1
//  797 
//  798   /* Write blank spaces to rest of the line */
//  799   for(count=totalLength; count<HAL_LCD_MAX_CHARS;count++)
        MOV     ?V0,?V1
        SJMP    ??HalLcd_HW_WriteLine_2
//  800   {
//  801     HalLcd_HW_WriteChar(line, count, ' ');
??HalLcd_HW_WriteLine_3:
        ; Setup parameters for call to function HalLcd_HW_Write
        MOV     R1,#0x20
        LCALL   `??HalLcd_HW_Write::?relay`; Banked call to: HalLcd_HW_Write
//  802   }
        INC     ?V0
??HalLcd_HW_WriteLine_2:
        MOV     A,?V0
        CLR     C
        SUBB    A,#0x10
        JC      ??HalLcd_HW_WriteLine_3
//  803 }
        MOV     R7,#0x2
        LJMP    ?BANKED_LEAVE_XDATA
          CFI EndBlock cfiBlock32
//  804 
//  805 /**************************************************************************************************
//  806  * @fn      HalLcd_HW_WaitUs
//  807  *
//  808  * @brief   wait for x us. @ 32MHz MCU clock it takes 32 "nop"s for 1 us delay.
//  809  *
//  810  * @param   x us. range[0-65536]
//  811  *
//  812  * @return  None
//  813  **************************************************************************************************/

        RSEG BANKED_CODE:HUGECODE:NOROOT(0)
//  814 void HalLcd_HW_WaitUs(uint16 microSecs)
HalLcd_HW_WaitUs:
          CFI Block cfiBlock33 Using cfiCommon0
          CFI Function HalLcd_HW_WaitUs
        CODE
//  815 {
        ; Saved register size: 0
        ; Auto size: 0
        SJMP    ??HalLcd_HW_WaitUs_0
//  816   while(microSecs--)
//  817   {
//  818     /* 32 NOPs == 1 usecs */
//  819     asm("nop"); asm("nop"); asm("nop"); asm("nop"); asm("nop");
??HalLcd_HW_WaitUs_1:
        nop
        nop
        nop
        nop
        nop
//  820     asm("nop"); asm("nop"); asm("nop"); asm("nop"); asm("nop");
        nop
        nop
        nop
        nop
        nop
//  821     asm("nop"); asm("nop"); asm("nop"); asm("nop"); asm("nop");
        nop
        nop
        nop
        nop
        nop
//  822     asm("nop"); asm("nop"); asm("nop"); asm("nop"); asm("nop");
        nop
        nop
        nop
        nop
        nop
//  823     asm("nop"); asm("nop"); asm("nop"); asm("nop"); asm("nop");
        nop
        nop
        nop
        nop
        nop
//  824     asm("nop"); asm("nop"); asm("nop"); asm("nop"); asm("nop");
        nop
        nop
        nop
        nop
        nop
//  825     asm("nop"); asm("nop");
        nop
        nop
//  826   }
??HalLcd_HW_WaitUs_0:
        MOV     A,R2
        MOV     R0,A
        MOV     A,R3
        MOV     R1,A
        MOV     A,R0
        ADD     A,#-0x1
        DEC     R2
        MOV     A,R1
        ADDC    A,#-0x1
        MOV     R3,A
        MOV     A,R0
        ORL     A,R1
        JNZ     ??HalLcd_HW_WaitUs_1
//  827 }
        LJMP    ?BRET
          CFI EndBlock cfiBlock33

        RSEG BANK_RELAYS:CODE:REORDER:NOROOT(0)
`??HalLcdInit::?relay`:
        CODE
        LCALL   ?BDISPATCH
        DATA24
        DC24    HalLcdInit

        RSEG BANK_RELAYS:CODE:REORDER:NOROOT(0)
`??HalLcdWriteString::?relay`:
        CODE
        LCALL   ?BDISPATCH
        DATA24
        DC24    HalLcdWriteString

        RSEG BANK_RELAYS:CODE:REORDER:NOROOT(0)
`??HalLcdWriteValue::?relay`:
        CODE
        LCALL   ?BDISPATCH
        DATA24
        DC24    HalLcdWriteValue

        RSEG BANK_RELAYS:CODE:REORDER:NOROOT(0)
`??HalLcdWriteScreen::?relay`:
        CODE
        LCALL   ?BDISPATCH
        DATA24
        DC24    HalLcdWriteScreen

        RSEG BANK_RELAYS:CODE:REORDER:NOROOT(0)
`??HalLcdWriteStringValue::?relay`:
        CODE
        LCALL   ?BDISPATCH
        DATA24
        DC24    HalLcdWriteStringValue

        RSEG BANK_RELAYS:CODE:REORDER:NOROOT(0)
`??HalLcdWriteStringValueValue::?relay`:
        CODE
        LCALL   ?BDISPATCH
        DATA24
        DC24    HalLcdWriteStringValueValue

        RSEG BANK_RELAYS:CODE:REORDER:NOROOT(0)
`??HalLcdDisplayPercentBar::?relay`:
        CODE
        LCALL   ?BDISPATCH
        DATA24
        DC24    HalLcdDisplayPercentBar

        RSEG BANK_RELAYS:CODE:REORDER:NOROOT(0)
`??HalLcd_HW_Init::?relay`:
        CODE
        LCALL   ?BDISPATCH
        DATA24
        DC24    HalLcd_HW_Init

        RSEG BANK_RELAYS:CODE:REORDER:NOROOT(0)
`??HalLcd_HW_Control::?relay`:
        CODE
        LCALL   ?BDISPATCH
        DATA24
        DC24    HalLcd_HW_Control

        RSEG BANK_RELAYS:CODE:REORDER:NOROOT(0)
`??HalLcd_HW_Write::?relay`:
        CODE
        LCALL   ?BDISPATCH
        DATA24
        DC24    HalLcd_HW_Write

        RSEG BANK_RELAYS:CODE:REORDER:NOROOT(0)
`??HalLcd_HW_SetContrast::?relay`:
        CODE
        LCALL   ?BDISPATCH
        DATA24
        DC24    HalLcd_HW_SetContrast

        RSEG BANK_RELAYS:CODE:REORDER:NOROOT(0)
`??HalLcd_HW_Clear::?relay`:
        CODE
        LCALL   ?BDISPATCH
        DATA24
        DC24    HalLcd_HW_Clear

        RSEG BANK_RELAYS:CODE:REORDER:NOROOT(0)
`??HalLcd_HW_ClearAllSpecChars::?relay`:
        CODE
        LCALL   ?BDISPATCH
        DATA24
        DC24    HalLcd_HW_ClearAllSpecChars

        RSEG BANK_RELAYS:CODE:REORDER:NOROOT(0)
`??HalLcd_HW_WriteChar::?relay`:
        CODE
        LCALL   ?BDISPATCH
        DATA24
        DC24    HalLcd_HW_WriteChar

        RSEG BANK_RELAYS:CODE:REORDER:NOROOT(0)
`??HalLcd_HW_WriteLine::?relay`:
        CODE
        LCALL   ?BDISPATCH
        DATA24
        DC24    HalLcd_HW_WriteLine

        RSEG BANK_RELAYS:CODE:REORDER:NOROOT(0)
`??HalLcd_HW_WaitUs::?relay`:
        CODE
        LCALL   ?BDISPATCH
        DATA24
        DC24    HalLcd_HW_WaitUs

        RSEG XDATA_ROM_C:CONST:REORDER:NOROOT(0)
        DATA8
`?<Constant "[          ]  ">`:
        DB "[          ]  "

        END
//  828 #endif
//  829 
//  830 
//  831 /**************************************************************************************************
//  832 **************************************************************************************************/
//  833 
//  834 
//  835 
// 
// 802 bytes in segment BANKED_CODE
//  96 bytes in segment BANK_RELAYS
//   7 bytes in segment SFR_AN
//  15 bytes in segment XDATA_ROM_C
// 
//  96 bytes of CODE     memory
//  15 bytes of CONST    memory
//   0 bytes of DATA     memory (+ 7 bytes shared)
// 802 bytes of HUGECODE memory
//
//Errors: none
//Warnings: 27
