///////////////////////////////////////////////////////////////////////////////
//
// IAR C/C++ Compiler V9.30.3.3983 for 8051               06/Apr/2017  12:17:03
// Copyright 2004-2016 IAR Systems AB.
// Evaluation license - IAR Embedded Workbench for 8051, Evaluation version 9.30
//
//    Core               =  plain
//    Code model         =  banked
//    Data model         =  large
//    Calling convention =  xdata reentrant
//    Constant location  =  data_rom
//    Dptr setup         =  1,16
//                          
//    Source file        =  
//        C:\Users\bsavanovic\Desktop\EndDevice\ZigBeeEndDevice\Components\hal\common\hal_drivers.c
//    Command line       =  
//        -f
//        C:\Users\bsavanovic\Desktop\EndDevice\ZigBeeEndDevice\Projects\zstack\Samples\GenericApp\CC2530DB\..\..\..\Tools\CC2530DB\f8wEndev.cfg
//        (-DCPU32MHZ -DROOT=__near_func -DMAC_CFG_TX_DATA_MAX=3
//        -DMAC_CFG_TX_MAX=6 -DMAC_CFG_RX_MAX=3) -f
//        C:\Users\bsavanovic\Desktop\EndDevice\ZigBeeEndDevice\Projects\zstack\Samples\GenericApp\CC2530DB\..\..\..\Tools\CC2530DB\f8wConfig.cfg
//        (-DZIGBEEPRO -DSECURE=1 -DZG_SECURE_DYNAMIC=0 -DREFLECTOR
//        -DDEFAULT_CHANLIST=0x00000800 -DZDAPP_CONFIG_PAN_ID=0x0422
//        -DNWK_START_DELAY=100 -DEXTENDED_JOINING_RANDOM_MASK=0x007F
//        -DBEACON_REQUEST_DELAY=100 -DBEACON_REQ_DELAY_MASK=0x00FF
//        -DLINK_STATUS_JITTER_MASK=0x007F -DROUTE_EXPIRY_TIME=30
//        -DAPSC_ACK_WAIT_DURATION_POLLED=3000 -DNWK_INDIRECT_MSG_TIMEOUT=7
//        -DMAX_RREQ_ENTRIES=8 -DAPSC_MAX_FRAME_RETRIES=3
//        -DNWK_MAX_DATA_RETRIES=2 -DMAX_POLL_FAILURE_RETRIES=2 -DMAX_BCAST=9
//        -DAPS_MAX_GROUPS=16 -DMAX_RTG_ENTRIES=40 -DNWK_MAX_BINDING_ENTRIES=4
//        -DMAX_BINDING_CLUSTER_IDS=4 "-DDEFAULT_KEY={0x01, 0x03, 0x05, 0x07,
//        0x09, 0x0B, 0x0D, 0x0F, 0x00, 0x02, 0x04, 0x06, 0x08, 0x0A, 0x0C,
//        0x0D}" -DMAC_MAX_FRAME_SIZE=116 -DZDNWKMGR_MIN_TRANSMISSIONS=20
//        "-DCONST=const __code" -DGENERIC=__generic -DRFD_RCVC_ALWAYS_ON=FALSE
//        -DPOLL_RATE=1000 -DQUEUED_POLL_RATE=100 -DRESPONSE_POLL_RATE=100)
//        -DREJOIN_POLL_RATE=440
//        C:\Users\bsavanovic\Desktop\EndDevice\ZigBeeEndDevice\Components\hal\common\hal_drivers.c
//        -D NWK_AUTO_POLL -D ZTOOL_P1 -D MT_TASK -D MT_SYS_FUNC -D MT_ZDO_FUNC
//        -D LCD_SUPPORTED=DEBUG -D xPOWER_SAVING -lC
//        C:\Users\bsavanovic\Desktop\EndDevice\ZigBeeEndDevice\Projects\zstack\Samples\GenericApp\CC2530DB\EndDeviceEB\List
//        -lA
//        C:\Users\bsavanovic\Desktop\EndDevice\ZigBeeEndDevice\Projects\zstack\Samples\GenericApp\CC2530DB\EndDeviceEB\List
//        --diag_suppress Pe001,Pa010 -o
//        C:\Users\bsavanovic\Desktop\EndDevice\ZigBeeEndDevice\Projects\zstack\Samples\GenericApp\CC2530DB\EndDeviceEB\Obj
//        -e --no_code_motion --debug --core=plain --dptr=16,1
//        --data_model=large --code_model=banked
//        --calling_convention=xdata_reentrant --place_constants=data_rom
//        --nr_virtual_regs 16 -I
//        C:\Users\bsavanovic\Desktop\EndDevice\ZigBeeEndDevice\Projects\zstack\Samples\GenericApp\CC2530DB\
//        -I
//        C:\Users\bsavanovic\Desktop\EndDevice\ZigBeeEndDevice\Projects\zstack\Samples\GenericApp\CC2530DB\..\Source\
//        -I
//        C:\Users\bsavanovic\Desktop\EndDevice\ZigBeeEndDevice\Projects\zstack\Samples\GenericApp\CC2530DB\..\..\..\ZMain\TI2530DB\
//        -I
//        C:\Users\bsavanovic\Desktop\EndDevice\ZigBeeEndDevice\Projects\zstack\Samples\GenericApp\CC2530DB\..\..\..\..\..\Components\hal\include\
//        -I
//        C:\Users\bsavanovic\Desktop\EndDevice\ZigBeeEndDevice\Projects\zstack\Samples\GenericApp\CC2530DB\..\..\..\..\..\Components\hal\target\CC2530EB\
//        -I
//        C:\Users\bsavanovic\Desktop\EndDevice\ZigBeeEndDevice\Projects\zstack\Samples\GenericApp\CC2530DB\..\..\..\..\..\Components\mac\include\
//        -I
//        C:\Users\bsavanovic\Desktop\EndDevice\ZigBeeEndDevice\Projects\zstack\Samples\GenericApp\CC2530DB\..\..\..\..\..\Components\mac\high_level\
//        -I
//        C:\Users\bsavanovic\Desktop\EndDevice\ZigBeeEndDevice\Projects\zstack\Samples\GenericApp\CC2530DB\..\..\..\..\..\Components\mac\low_level\srf04\
//        -I
//        C:\Users\bsavanovic\Desktop\EndDevice\ZigBeeEndDevice\Projects\zstack\Samples\GenericApp\CC2530DB\..\..\..\..\..\Components\mac\low_level\srf04\single_chip\
//        -I
//        C:\Users\bsavanovic\Desktop\EndDevice\ZigBeeEndDevice\Projects\zstack\Samples\GenericApp\CC2530DB\..\..\..\..\..\Components\mt\
//        -I
//        C:\Users\bsavanovic\Desktop\EndDevice\ZigBeeEndDevice\Projects\zstack\Samples\GenericApp\CC2530DB\..\..\..\..\..\Components\osal\include\
//        -I
//        C:\Users\bsavanovic\Desktop\EndDevice\ZigBeeEndDevice\Projects\zstack\Samples\GenericApp\CC2530DB\..\..\..\..\..\Components\services\saddr\
//        -I
//        C:\Users\bsavanovic\Desktop\EndDevice\ZigBeeEndDevice\Projects\zstack\Samples\GenericApp\CC2530DB\..\..\..\..\..\Components\services\sdata\
//        -I
//        C:\Users\bsavanovic\Desktop\EndDevice\ZigBeeEndDevice\Projects\zstack\Samples\GenericApp\CC2530DB\..\..\..\..\..\Components\stack\af\
//        -I
//        C:\Users\bsavanovic\Desktop\EndDevice\ZigBeeEndDevice\Projects\zstack\Samples\GenericApp\CC2530DB\..\..\..\..\..\Components\stack\nwk\
//        -I
//        C:\Users\bsavanovic\Desktop\EndDevice\ZigBeeEndDevice\Projects\zstack\Samples\GenericApp\CC2530DB\..\..\..\..\..\Components\stack\sapi\
//        -I
//        C:\Users\bsavanovic\Desktop\EndDevice\ZigBeeEndDevice\Projects\zstack\Samples\GenericApp\CC2530DB\..\..\..\..\..\Components\stack\sec\
//        -I
//        C:\Users\bsavanovic\Desktop\EndDevice\ZigBeeEndDevice\Projects\zstack\Samples\GenericApp\CC2530DB\..\..\..\..\..\Components\stack\sys\
//        -I
//        C:\Users\bsavanovic\Desktop\EndDevice\ZigBeeEndDevice\Projects\zstack\Samples\GenericApp\CC2530DB\..\..\..\..\..\Components\stack\zdo\
//        -I
//        C:\Users\bsavanovic\Desktop\EndDevice\ZigBeeEndDevice\Projects\zstack\Samples\GenericApp\CC2530DB\..\..\..\..\..\Components\zmac\
//        -I
//        C:\Users\bsavanovic\Desktop\EndDevice\ZigBeeEndDevice\Projects\zstack\Samples\GenericApp\CC2530DB\..\..\..\..\..\Components\zmac\f8w\
//        -Ohz --require_prototypes
//    List file          =  
//        C:\Users\bsavanovic\Desktop\EndDevice\ZigBeeEndDevice\Projects\zstack\Samples\GenericApp\CC2530DB\EndDeviceEB\List\hal_drivers.s51
//
///////////////////////////////////////////////////////////////////////////////

        NAME hal_drivers

        RTMODEL "__SystemLibrary", "CLib"
        RTMODEL "__calling_convention", "xdata_reentrant"
        RTMODEL "__code_model", "banked"
        RTMODEL "__core", "plain"
        RTMODEL "__data_model", "large"
        RTMODEL "__dptr_size", "16"
        RTMODEL "__extended_stack", "disabled"
        RTMODEL "__location_for_constants", "data"
        RTMODEL "__number_of_dptrs", "1"
        RTMODEL "__rt_version", "1"

        RSEG DOVERLAY:DATA:NOROOT(0)
        RSEG IOVERLAY:IDATA:NOROOT(0)
        RSEG ISTACK:IDATA:NOROOT(0)
        RSEG PSTACK:XDATA:NOROOT(0)
        RSEG XSTACK:XDATA:NOROOT(0)

        EXTERN ?V0
        EXTERN ?V1
        EXTERN ?BANKED_ENTER_XDATA
        EXTERN ?BANKED_LEAVE_XDATA
        EXTERN ?BDISPATCH
        EXTERN ?BRET
        EXTERN ?DEALLOC_XSTACK8
        EXTERN ?PUSH_XSTACK8_X_FOUR
        EXTERN __INIT_XDATA_Z

        PUBLIC `??HalDriverInit::?relay`
        FUNCTION `??HalDriverInit::?relay`,0203H
        PUBLIC `??Hal_Init::?relay`
        FUNCTION `??Hal_Init::?relay`,0203H
        PUBLIC `??Hal_ProcessEvent::?relay`
        FUNCTION `??Hal_ProcessEvent::?relay`,0203H
        PUBLIC `??Hal_ProcessPoll::?relay`
        FUNCTION `??Hal_ProcessPoll::?relay`,0203H
        PUBLIC HalDriverInit
        FUNCTION HalDriverInit,021203H
        ARGFRAME XSTACK, 0, STACK
        LOCFRAME ISTACK, 2, STACK
        PUBLIC Hal_Init
        FUNCTION Hal_Init,0203H
        ARGFRAME XSTACK, 0, STACK
        LOCFRAME ISTACK, 2, STACK
        PUBLIC Hal_ProcessEvent
        FUNCTION Hal_ProcessEvent,0a1203H
        ARGFRAME XSTACK, 0, STACK
        LOCFRAME XSTACK, 14, STACK
        PUBLIC Hal_ProcessPoll
        FUNCTION Hal_ProcessPoll,021203H
        ARGFRAME XSTACK, 0, STACK
        LOCFRAME ISTACK, 2, STACK
        PUBLIC Hal_TaskID
        PUBLIC MagneticSwitchFlag
        PUBLIC MotionSensorFlag
        PUBWEAK __Constant_64
        
          CFI Names cfiNames0
          CFI StackFrame CFA_SP SP IDATA
          CFI StackFrame CFA_PSP16 PSP16 XDATA
          CFI StackFrame CFA_XSP16 XSP16 XDATA
          CFI StaticOverlayFrame CFA_IOVERLAY IOVERLAY
          CFI StaticOverlayFrame CFA_DOVERLAY DOVERLAY
          CFI Resource `PSW.CY`:1, `B.BR0`:1, `B.BR1`:1, `B.BR2`:1, `B.BR3`:1
          CFI Resource `B.BR4`:1, `B.BR5`:1, `B.BR6`:1, `B.BR7`:1, `VB.BR8`:1
          CFI Resource `VB.BR9`:1, `VB.BR10`:1, `VB.BR11`:1, `VB.BR12`:1
          CFI Resource `VB.BR13`:1, `VB.BR14`:1, `VB.BR15`:1, VB:8, B:8, A:8
          CFI Resource PSW:8, DPL0:8, DPH0:8, R0:8, R1:8, R2:8, R3:8, R4:8, R5:8
          CFI Resource R6:8, R7:8, V0:8, V1:8, V2:8, V3:8, V4:8, V5:8, V6:8, V7:8
          CFI Resource V8:8, V9:8, V10:8, V11:8, V12:8, V13:8, V14:8, V15:8, SP:8
          CFI Resource PSPH:8, PSPL:8, PSP16:16, XSPH:8, XSPL:8, XSP16:16
          CFI VirtualResource ?RET:24
          CFI Resource ?BRET_EXT:8
          CFI VirtualResource ?RET_HIGH:8, ?RET_LOW:8
          CFI ResourceParts PSP16 PSPH, PSPL
          CFI ResourceParts XSP16 XSPH, XSPL
          CFI ResourceParts ?RET ?BRET_EXT, ?RET_HIGH, ?RET_LOW
          CFI EndNames cfiNames0
        
          CFI Common cfiCommon0 Using cfiNames0
          CFI CodeAlign 1
          CFI DataAlign -1
          CFI ReturnAddress ?RET CODE
          CFI CFA_DOVERLAY Used
          CFI CFA_IOVERLAY Used
          CFI CFA_SP SP+-3
          CFI CFA_PSP16 PSP16+0
          CFI CFA_XSP16 XSP16+0
          CFI `PSW.CY` SameValue
          CFI `B.BR0` SameValue
          CFI `B.BR1` SameValue
          CFI `B.BR2` SameValue
          CFI `B.BR3` SameValue
          CFI `B.BR4` SameValue
          CFI `B.BR5` SameValue
          CFI `B.BR6` SameValue
          CFI `B.BR7` SameValue
          CFI `VB.BR8` SameValue
          CFI `VB.BR9` SameValue
          CFI `VB.BR10` SameValue
          CFI `VB.BR11` SameValue
          CFI `VB.BR12` SameValue
          CFI `VB.BR13` SameValue
          CFI `VB.BR14` SameValue
          CFI `VB.BR15` SameValue
          CFI VB SameValue
          CFI B Undefined
          CFI A Undefined
          CFI PSW SameValue
          CFI DPL0 SameValue
          CFI DPH0 SameValue
          CFI R0 Undefined
          CFI R1 Undefined
          CFI R2 Undefined
          CFI R3 Undefined
          CFI R4 Undefined
          CFI R5 Undefined
          CFI R6 SameValue
          CFI R7 SameValue
          CFI V0 SameValue
          CFI V1 SameValue
          CFI V2 SameValue
          CFI V3 SameValue
          CFI V4 SameValue
          CFI V5 SameValue
          CFI V6 SameValue
          CFI V7 SameValue
          CFI V8 SameValue
          CFI V9 SameValue
          CFI V10 SameValue
          CFI V11 SameValue
          CFI V12 SameValue
          CFI V13 SameValue
          CFI V14 SameValue
          CFI V15 SameValue
          CFI PSPH Undefined
          CFI PSPL Undefined
          CFI XSPH Undefined
          CFI XSPL Undefined
          CFI ?RET Concat
          CFI ?BRET_EXT Frame(CFA_SP, 3)
          CFI ?RET_HIGH Frame(CFA_SP, 2)
          CFI ?RET_LOW Frame(CFA_SP, 1)
          CFI EndCommon cfiCommon0
        
HalAdcInit          SYMBOL "HalAdcInit"
`??HalAdcInit::?relay` SYMBOL "?relay", HalAdcInit
HalAesInit          SYMBOL "HalAesInit"
`??HalAesInit::?relay` SYMBOL "?relay", HalAesInit
HalDmaInit          SYMBOL "HalDmaInit"
`??HalDmaInit::?relay` SYMBOL "?relay", HalDmaInit
HalKeyInit          SYMBOL "HalKeyInit"
`??HalKeyInit::?relay` SYMBOL "?relay", HalKeyInit
HalLcdInit          SYMBOL "HalLcdInit"
`??HalLcdInit::?relay` SYMBOL "?relay", HalLcdInit
HalLedInit          SYMBOL "HalLedInit"
`??HalLedInit::?relay` SYMBOL "?relay", HalLedInit
HalLedUpdate        SYMBOL "HalLedUpdate"
`??HalLedUpdate::?relay` SYMBOL "?relay", HalLedUpdate
HalUARTInit         SYMBOL "HalUARTInit"
`??HalUARTInit::?relay` SYMBOL "?relay", HalUARTInit
HalUARTPoll         SYMBOL "HalUARTPoll"
`??HalUARTPoll::?relay` SYMBOL "?relay", HalUARTPoll
MagneticSwitch_SendTheMessage SYMBOL "MagneticSwitch_SendTheMessage"
`??MagneticSwitch_SendTheMessage::?relay` SYMBOL "?relay", MagneticSwitch_SendTheMessage
MotionSensor_SendTheMessage SYMBOL "MotionSensor_SendTheMessage"
`??MotionSensor_SendTheMessage::?relay` SYMBOL "?relay", MotionSensor_SendTheMessage
osal_msg_deallocate SYMBOL "osal_msg_deallocate"
`??osal_msg_deallocate::?relay` SYMBOL "?relay", osal_msg_deallocate
osal_msg_receive    SYMBOL "osal_msg_receive"
`??osal_msg_receive::?relay` SYMBOL "?relay", osal_msg_receive
osal_start_timerEx  SYMBOL "osal_start_timerEx"
`??osal_start_timerEx::?relay` SYMBOL "?relay", osal_start_timerEx
HalDriverInit       SYMBOL "HalDriverInit"
`??HalDriverInit::?relay` SYMBOL "?relay", HalDriverInit
Hal_Init            SYMBOL "Hal_Init"
`??Hal_Init::?relay` SYMBOL "?relay", Hal_Init
Hal_ProcessEvent    SYMBOL "Hal_ProcessEvent"
`??Hal_ProcessEvent::?relay` SYMBOL "?relay", Hal_ProcessEvent
Hal_ProcessPoll     SYMBOL "Hal_ProcessPoll"
`??Hal_ProcessPoll::?relay` SYMBOL "?relay", Hal_ProcessPoll

        EXTERN `??HalAdcInit::?relay`
        FUNCTION `??HalAdcInit::?relay`,00H
        EXTERN `??HalAesInit::?relay`
        FUNCTION `??HalAesInit::?relay`,00H
        EXTERN `??HalDmaInit::?relay`
        FUNCTION `??HalDmaInit::?relay`,00H
        EXTERN `??HalKeyInit::?relay`
        FUNCTION `??HalKeyInit::?relay`,00H
        EXTERN `??HalLcdInit::?relay`
        FUNCTION `??HalLcdInit::?relay`,00H
        EXTERN `??HalLedInit::?relay`
        FUNCTION `??HalLedInit::?relay`,00H
        EXTERN `??HalLedUpdate::?relay`
        FUNCTION `??HalLedUpdate::?relay`,00H
        EXTERN `??HalUARTInit::?relay`
        FUNCTION `??HalUARTInit::?relay`,00H
        EXTERN `??HalUARTPoll::?relay`
        FUNCTION `??HalUARTPoll::?relay`,00H
        EXTERN `??MagneticSwitch_SendTheMessage::?relay`
        FUNCTION `??MagneticSwitch_SendTheMessage::?relay`,00H
        EXTERN `??MotionSensor_SendTheMessage::?relay`
        FUNCTION `??MotionSensor_SendTheMessage::?relay`,00H
        EXTERN `??osal_msg_deallocate::?relay`
        FUNCTION `??osal_msg_deallocate::?relay`,00H
        EXTERN `??osal_msg_receive::?relay`
        FUNCTION `??osal_msg_receive::?relay`,00H
        EXTERN `??osal_start_timerEx::?relay`
        FUNCTION `??osal_start_timerEx::?relay`,00H
        EXTERN HalAdcInit
        FUNCTION HalAdcInit,0202H
        ARGFRAME ISTACK, 2, STACK
        ARGFRAME PSTACK, 0, STACK
        ARGFRAME XSTACK, 0, STACK
        ARGFRAME IOVERLAY, 0, STATIC
        ARGFRAME DOVERLAY, 0, STATIC
        EXTERN HalAesInit
        FUNCTION HalAesInit,0202H
        ARGFRAME ISTACK, 2, STACK
        ARGFRAME PSTACK, 0, STACK
        ARGFRAME XSTACK, 0, STACK
        ARGFRAME IOVERLAY, 0, STATIC
        ARGFRAME DOVERLAY, 0, STATIC
        EXTERN HalDmaInit
        FUNCTION HalDmaInit,0202H
        ARGFRAME ISTACK, 2, STACK
        ARGFRAME PSTACK, 0, STACK
        ARGFRAME XSTACK, 0, STACK
        ARGFRAME IOVERLAY, 0, STATIC
        ARGFRAME DOVERLAY, 0, STATIC
        EXTERN HalKeyInit
        FUNCTION HalKeyInit,0202H
        ARGFRAME ISTACK, 2, STACK
        ARGFRAME PSTACK, 0, STACK
        ARGFRAME XSTACK, 0, STACK
        ARGFRAME IOVERLAY, 0, STATIC
        ARGFRAME DOVERLAY, 0, STATIC
        EXTERN HalLcdInit
        FUNCTION HalLcdInit,0202H
        ARGFRAME ISTACK, 2, STACK
        ARGFRAME PSTACK, 0, STACK
        ARGFRAME XSTACK, 0, STACK
        ARGFRAME IOVERLAY, 0, STATIC
        ARGFRAME DOVERLAY, 0, STATIC
        EXTERN HalLedInit
        FUNCTION HalLedInit,0202H
        ARGFRAME ISTACK, 2, STACK
        ARGFRAME PSTACK, 0, STACK
        ARGFRAME XSTACK, 0, STACK
        ARGFRAME IOVERLAY, 0, STATIC
        ARGFRAME DOVERLAY, 0, STATIC
        EXTERN HalLedUpdate
        FUNCTION HalLedUpdate,0202H
        ARGFRAME ISTACK, 0, STACK
        ARGFRAME PSTACK, 0, STACK
        ARGFRAME XSTACK, 10, STACK
        ARGFRAME IOVERLAY, 0, STATIC
        ARGFRAME DOVERLAY, 0, STATIC
        EXTERN HalUARTInit
        FUNCTION HalUARTInit,0202H
        ARGFRAME ISTACK, 2, STACK
        ARGFRAME PSTACK, 0, STACK
        ARGFRAME XSTACK, 0, STACK
        ARGFRAME IOVERLAY, 0, STATIC
        ARGFRAME DOVERLAY, 0, STATIC
        EXTERN HalUARTPoll
        FUNCTION HalUARTPoll,0202H
        ARGFRAME ISTACK, 2, STACK
        ARGFRAME PSTACK, 0, STACK
        ARGFRAME XSTACK, 0, STACK
        ARGFRAME IOVERLAY, 0, STATIC
        ARGFRAME DOVERLAY, 0, STATIC
        EXTERN Hal_KeyIntEnable
        EXTERN MagneticSwitch_SendTheMessage
        FUNCTION MagneticSwitch_SendTheMessage,0202H
        ARGFRAME ISTACK, 0, STACK
        ARGFRAME PSTACK, 0, STACK
        ARGFRAME XSTACK, 10, STACK
        ARGFRAME IOVERLAY, 0, STATIC
        ARGFRAME DOVERLAY, 0, STATIC
        EXTERN MotionSensor_SendTheMessage
        FUNCTION MotionSensor_SendTheMessage,0202H
        ARGFRAME ISTACK, 0, STACK
        ARGFRAME PSTACK, 0, STACK
        ARGFRAME XSTACK, 10, STACK
        ARGFRAME IOVERLAY, 0, STATIC
        ARGFRAME DOVERLAY, 0, STATIC
        EXTERN osal_msg_deallocate
        FUNCTION osal_msg_deallocate,0202H
        ARGFRAME ISTACK, 0, STACK
        ARGFRAME PSTACK, 0, STACK
        ARGFRAME XSTACK, 10, STACK
        ARGFRAME IOVERLAY, 0, STATIC
        ARGFRAME DOVERLAY, 0, STATIC
        EXTERN osal_msg_receive
        FUNCTION osal_msg_receive,0202H
        ARGFRAME ISTACK, 0, STACK
        ARGFRAME PSTACK, 0, STACK
        ARGFRAME XSTACK, 10, STACK
        ARGFRAME IOVERLAY, 0, STATIC
        ARGFRAME DOVERLAY, 0, STATIC
        EXTERN osal_start_timerEx
        FUNCTION osal_start_timerEx,0202H
        ARGFRAME ISTACK, 0, STACK
        ARGFRAME PSTACK, 0, STACK
        ARGFRAME XSTACK, 14, STACK
        ARGFRAME IOVERLAY, 0, STATIC
        ARGFRAME DOVERLAY, 0, STATIC

// C:\Users\bsavanovic\Desktop\EndDevice\ZigBeeEndDevice\Components\hal\common\hal_drivers.c
//    1 /**************************************************************************************************
//    2   Filename:       hal_drivers.c
//    3   Revised:        $Date: 2007-07-06 10:42:24 -0700 (Fri, 06 Jul 2007) $
//    4   Revision:       $Revision: 13579 $
//    5 
//    6   Description:    This file contains the interface to the Drivers Service.
//    7 
//    8 
//    9   Copyright 2005-2013 Texas Instruments Incorporated. All rights reserved.
//   10 
//   11   IMPORTANT: Your use of this Software is limited to those specific rights
//   12   granted under the terms of a software license agreement between the user
//   13   who downloaded the software, his/her employer (which must be your employer)
//   14   and Texas Instruments Incorporated (the "License").  You may not use this
//   15   Software unless you agree to abide by the terms of the License. The License
//   16   limits your use, and you acknowledge, that the Software may not be modified,
//   17   copied or distributed unless embedded on a Texas Instruments microcontroller
//   18   or used solely and exclusively in conjunction with a Texas Instruments radio
//   19   frequency transceiver, which is integrated into your product.  Other than for
//   20   the foregoing purpose, you may not use, reproduce, copy, prepare derivative
//   21   works of, modify, distribute, perform, display or sell this Software and/or
//   22   its documentation for any purpose.
//   23 
//   24   YOU FURTHER ACKNOWLEDGE AND AGREE THAT THE SOFTWARE AND DOCUMENTATION ARE
//   25   PROVIDED “AS IS” WITHOUT WARRANTY OF ANY KIND, EITHER EXPRESS OR IMPLIED,
//   26   INCLUDING WITHOUT LIMITATION, ANY WARRANTY OF MERCHANTABILITY, TITLE,
//   27   NON-INFRINGEMENT AND FITNESS FOR A PARTICULAR PURPOSE. IN NO EVENT SHALL
//   28   TEXAS INSTRUMENTS OR ITS LICENSORS BE LIABLE OR OBLIGATED UNDER CONTRACT,
//   29   NEGLIGENCE, STRICT LIABILITY, CONTRIBUTION, BREACH OF WARRANTY, OR OTHER
//   30   LEGAL EQUITABLE THEORY ANY DIRECT OR INDIRECT DAMAGES OR EXPENSES
//   31   INCLUDING BUT NOT LIMITED TO ANY INCIDENTAL, SPECIAL, INDIRECT, PUNITIVE
//   32   OR CONSEQUENTIAL DAMAGES, LOST PROFITS OR LOST DATA, COST OF PROCUREMENT
//   33   OF SUBSTITUTE GOODS, TECHNOLOGY, SERVICES, OR ANY CLAIMS BY THIRD PARTIES
//   34   (INCLUDING BUT NOT LIMITED TO ANY DEFENSE THEREOF), OR OTHER SIMILAR COSTS.
//   35 
//   36   Should you have any questions regarding your right to use this Software,
//   37   contact Texas Instruments Incorporated at www.TI.com.
//   38 **************************************************************************************************/
//   39 
//   40 /**************************************************************************************************
//   41  *                                            INCLUDES
//   42  **************************************************************************************************/
//   43 
//   44 #include "hal_adc.h"
//   45 #if (defined HAL_AES) && (HAL_AES == TRUE)
//   46 #include "hal_aes.h"
//   47 #endif
//   48 #if (defined HAL_BUZZER) && (HAL_BUZZER == TRUE)
//   49 #include "hal_buzzer.h"
//   50 #endif
//   51 #if (defined HAL_DMA) && (HAL_DMA == TRUE)
//   52 #include "hal_dma.h"
//   53 #endif
//   54 #include "hal_drivers.h"
//   55 #include "hal_key.h"
//   56 #include "hal_lcd.h"
//   57 #include "hal_led.h"
//   58 #include "hal_sleep.h"
//   59 #include "hal_timer.h"
//   60 #include "hal_types.h"
//   61 #include "hal_uart.h"
//   62 #ifdef CC2591_COMPRESSION_WORKAROUND
//   63 #include "mac_rx.h"
//   64 #endif
//   65 #include "OSAL.h"
//   66 #if defined POWER_SAVING
//   67 #include "OSAL_PwrMgr.h"
//   68 #endif
//   69 #if (defined HAL_HID) && (HAL_HID == TRUE)
//   70 #include "usb_hid.h"
//   71 #endif
//   72 #if (defined HAL_SPI) && (HAL_SPI == TRUE)
//   73 #include "hal_spi.h"
//   74 #endif
//   75 
//   76 /**************************************************************************************************
//   77  *                                      EXTERNAL FUNCTIONS
//   78  **************************************************************************************************/
//   79 
//   80 extern void MagneticSwitch_SendTheMessage( void );
//   81 extern void MotionSensor_SendTheMessage( void );
//   82 
//   83 /**************************************************************************************************
//   84  *                                      GLOBAL VARIABLES
//   85  **************************************************************************************************/

        RSEG XDATA_Z:XDATA:NOROOT(0)
        DATA8
//   86 uint8 Hal_TaskID;
Hal_TaskID:
        DS 1
        REQUIRE __INIT_XDATA_Z
//   87 

        RSEG XDATA_Z:XDATA:NOROOT(0)
        DATA8
//   88 uint8 MagneticSwitchFlag = 0;
MagneticSwitchFlag:
        DS 1
        REQUIRE __INIT_XDATA_Z

        RSEG XDATA_Z:XDATA:NOROOT(0)
        DATA8
//   89 uint8 MotionSensorFlag = 0;
MotionSensorFlag:
        DS 1
        REQUIRE __INIT_XDATA_Z
//   90 
//   91 extern void HalLedUpdate( void ); /* Notes: This for internal only so it shouldn't be in hal_led.h */
//   92 
//   93 /**************************************************************************************************
//   94  * @fn      Hal_Init
//   95  *
//   96  * @brief   Hal Initialization function.
//   97  *
//   98  * @param   task_id - Hal TaskId
//   99  *
//  100  * @return  None
//  101  **************************************************************************************************/

        RSEG BANKED_CODE:HUGECODE:NOROOT(0)
//  102 void Hal_Init( uint8 task_id )
Hal_Init:
          CFI Block cfiBlock0 Using cfiCommon0
          CFI Function Hal_Init
        CODE
//  103 {
        PUSH    DPL
          CFI DPL0 Frame(CFA_SP, 4)
          CFI CFA_SP SP+-4
        PUSH    DPH
          CFI DPH0 Frame(CFA_SP, 5)
          CFI CFA_SP SP+-5
        ; Saved register size: 2
        ; Auto size: 0
//  104   /* Register task ID */
//  105   Hal_TaskID = task_id;
        MOV     A,R1
        MOV     DPTR,#Hal_TaskID
        MOVX    @DPTR,A
//  106 
//  107 #ifdef CC2591_COMPRESSION_WORKAROUND
//  108   osal_start_reload_timer( Hal_TaskID, PERIOD_RSSI_RESET_EVT, PERIOD_RSSI_RESET_TIMEOUT );
//  109 #endif
//  110 }
          CFI EndBlock cfiBlock0
        REQUIRE ?Subroutine0
        ; // Fall through to label ?Subroutine0

        RSEG BANKED_CODE:HUGECODE:NOROOT(0)
?Subroutine0:
          CFI Block cfiBlock1 Using cfiCommon0
          CFI NoFunction
          CFI CFA_SP SP+-5
          CFI DPL0 Frame(CFA_SP, 4)
          CFI DPH0 Frame(CFA_SP, 5)
        POP     DPH
          CFI CFA_SP SP+-4
          CFI DPH0 SameValue
        POP     DPL
          CFI CFA_SP SP+-3
          CFI DPL0 SameValue
        LJMP    ?BRET
          CFI EndBlock cfiBlock1
//  111 
//  112 /**************************************************************************************************
//  113  * @fn      Hal_DriverInit
//  114  *
//  115  * @brief   Initialize HW - These need to be initialized before anyone.
//  116  *
//  117  * @param   task_id - Hal TaskId
//  118  *
//  119  * @return  None
//  120  **************************************************************************************************/

        RSEG BANKED_CODE:HUGECODE:NOROOT(0)
//  121 void HalDriverInit (void)
HalDriverInit:
          CFI Block cfiBlock2 Using cfiCommon0
          CFI Function HalDriverInit
        CODE
//  122 {
        FUNCALL HalDriverInit, HalAdcInit
        LOCFRAME ISTACK, 2, STACK
        LOCFRAME PSTACK, 0, STACK
        LOCFRAME XSTACK, 0, STACK
        LOCFRAME IOVERLAY, 0, STATIC
        LOCFRAME DOVERLAY, 0, STATIC
        ARGFRAME ISTACK, 2, STACK
        ARGFRAME PSTACK, 0, STACK
        ARGFRAME XSTACK, 0, STACK
        ARGFRAME IOVERLAY, 0, STATIC
        ARGFRAME DOVERLAY, 0, STATIC
        FUNCALL HalDriverInit, HalDmaInit
        LOCFRAME ISTACK, 2, STACK
        LOCFRAME PSTACK, 0, STACK
        LOCFRAME XSTACK, 0, STACK
        LOCFRAME IOVERLAY, 0, STATIC
        LOCFRAME DOVERLAY, 0, STATIC
        ARGFRAME ISTACK, 2, STACK
        ARGFRAME PSTACK, 0, STACK
        ARGFRAME XSTACK, 0, STACK
        ARGFRAME IOVERLAY, 0, STATIC
        ARGFRAME DOVERLAY, 0, STATIC
        FUNCALL HalDriverInit, HalAesInit
        LOCFRAME ISTACK, 2, STACK
        LOCFRAME PSTACK, 0, STACK
        LOCFRAME XSTACK, 0, STACK
        LOCFRAME IOVERLAY, 0, STATIC
        LOCFRAME DOVERLAY, 0, STATIC
        ARGFRAME ISTACK, 2, STACK
        ARGFRAME PSTACK, 0, STACK
        ARGFRAME XSTACK, 0, STACK
        ARGFRAME IOVERLAY, 0, STATIC
        ARGFRAME DOVERLAY, 0, STATIC
        FUNCALL HalDriverInit, HalLcdInit
        LOCFRAME ISTACK, 2, STACK
        LOCFRAME PSTACK, 0, STACK
        LOCFRAME XSTACK, 0, STACK
        LOCFRAME IOVERLAY, 0, STATIC
        LOCFRAME DOVERLAY, 0, STATIC
        ARGFRAME ISTACK, 2, STACK
        ARGFRAME PSTACK, 0, STACK
        ARGFRAME XSTACK, 0, STACK
        ARGFRAME IOVERLAY, 0, STATIC
        ARGFRAME DOVERLAY, 0, STATIC
        FUNCALL HalDriverInit, HalLedInit
        LOCFRAME ISTACK, 2, STACK
        LOCFRAME PSTACK, 0, STACK
        LOCFRAME XSTACK, 0, STACK
        LOCFRAME IOVERLAY, 0, STATIC
        LOCFRAME DOVERLAY, 0, STATIC
        ARGFRAME ISTACK, 2, STACK
        ARGFRAME PSTACK, 0, STACK
        ARGFRAME XSTACK, 0, STACK
        ARGFRAME IOVERLAY, 0, STATIC
        ARGFRAME DOVERLAY, 0, STATIC
        FUNCALL HalDriverInit, HalUARTInit
        LOCFRAME ISTACK, 2, STACK
        LOCFRAME PSTACK, 0, STACK
        LOCFRAME XSTACK, 0, STACK
        LOCFRAME IOVERLAY, 0, STATIC
        LOCFRAME DOVERLAY, 0, STATIC
        ARGFRAME ISTACK, 2, STACK
        ARGFRAME PSTACK, 0, STACK
        ARGFRAME XSTACK, 0, STACK
        ARGFRAME IOVERLAY, 0, STATIC
        ARGFRAME DOVERLAY, 0, STATIC
        FUNCALL HalDriverInit, HalKeyInit
        LOCFRAME ISTACK, 2, STACK
        LOCFRAME PSTACK, 0, STACK
        LOCFRAME XSTACK, 0, STACK
        LOCFRAME IOVERLAY, 0, STATIC
        LOCFRAME DOVERLAY, 0, STATIC
        ARGFRAME ISTACK, 2, STACK
        ARGFRAME PSTACK, 0, STACK
        ARGFRAME XSTACK, 0, STACK
        ARGFRAME IOVERLAY, 0, STATIC
        ARGFRAME DOVERLAY, 0, STATIC
        PUSH    DPL
          CFI DPL0 Frame(CFA_SP, 4)
          CFI CFA_SP SP+-4
        PUSH    DPH
          CFI DPH0 Frame(CFA_SP, 5)
          CFI CFA_SP SP+-5
        ; Saved register size: 2
        ; Auto size: 0
//  123   /* TIMER */
//  124 #if (defined HAL_TIMER) && (HAL_TIMER == TRUE)
//  125 #endif
//  126 
//  127   /* ADC */
//  128 #if (defined HAL_ADC) && (HAL_ADC == TRUE)
//  129   HalAdcInit();
        ; Setup parameters for call to function HalAdcInit
        LCALL   `??HalAdcInit::?relay`; Banked call to: HalAdcInit
//  130 #endif
//  131 
//  132   /* DMA */
//  133 #if (defined HAL_DMA) && (HAL_DMA == TRUE)
//  134   // Must be called before the init call to any module that uses DMA.
//  135   HalDmaInit();
        ; Setup parameters for call to function HalDmaInit
        LCALL   `??HalDmaInit::?relay`; Banked call to: HalDmaInit
//  136 #endif
//  137 
//  138   /* AES */
//  139 #if (defined HAL_AES) && (HAL_AES == TRUE)
//  140   HalAesInit();
        ; Setup parameters for call to function HalAesInit
        LCALL   `??HalAesInit::?relay`; Banked call to: HalAesInit
//  141 #endif
//  142 
//  143   /* LCD */
//  144 #if (defined HAL_LCD) && (HAL_LCD == TRUE)
//  145   HalLcdInit();
        ; Setup parameters for call to function HalLcdInit
        LCALL   `??HalLcdInit::?relay`; Banked call to: HalLcdInit
//  146 #endif
//  147 
//  148   /* LED */
//  149 #if (defined HAL_LED) && (HAL_LED == TRUE)
//  150   HalLedInit();
        ; Setup parameters for call to function HalLedInit
        LCALL   `??HalLedInit::?relay`; Banked call to: HalLedInit
//  151 #endif
//  152 
//  153   /* UART */
//  154 #if (defined HAL_UART) && (HAL_UART == TRUE)
//  155   HalUARTInit();
        ; Setup parameters for call to function HalUARTInit
        LCALL   `??HalUARTInit::?relay`; Banked call to: HalUARTInit
//  156 #endif
//  157 
//  158   /* KEY */
//  159 #if (defined HAL_KEY) && (HAL_KEY == TRUE)
//  160   HalKeyInit();
        ; Setup parameters for call to function HalKeyInit
        LCALL   `??HalKeyInit::?relay`; Banked call to: HalKeyInit
//  161 #endif
//  162   
//  163   /* SPI */
//  164 #if (defined HAL_SPI) && (HAL_SPI == TRUE)
//  165   HalSpiInit();
//  166 #endif
//  167 
//  168   /* HID */
//  169 #if (defined HAL_HID) && (HAL_HID == TRUE)
//  170   usbHidInit();
//  171 #endif
//  172 }
        SJMP    ?Subroutine0
          CFI EndBlock cfiBlock2
//  173 
//  174 /**************************************************************************************************
//  175  * @fn      Hal_ProcessEvent
//  176  *
//  177  * @brief   Hal Process Event
//  178  *
//  179  * @param   task_id - Hal TaskId
//  180  *          events - events
//  181  *
//  182  * @return  None
//  183  **************************************************************************************************/

        RSEG BANKED_CODE:HUGECODE:NOROOT(0)
//  184 uint16 Hal_ProcessEvent( uint8 task_id, uint16 events )
Hal_ProcessEvent:
          CFI Block cfiBlock3 Using cfiCommon0
          CFI Function Hal_ProcessEvent
        CODE
//  185 {
        FUNCALL Hal_ProcessEvent, osal_msg_receive
        LOCFRAME ISTACK, 0, STACK
        LOCFRAME PSTACK, 0, STACK
        LOCFRAME XSTACK, 10, STACK
        LOCFRAME IOVERLAY, 0, STATIC
        LOCFRAME DOVERLAY, 0, STATIC
        ARGFRAME ISTACK, 0, STACK
        ARGFRAME PSTACK, 0, STACK
        ARGFRAME XSTACK, 10, STACK
        ARGFRAME IOVERLAY, 0, STATIC
        ARGFRAME DOVERLAY, 0, STATIC
        FUNCALL Hal_ProcessEvent, osal_msg_deallocate
        LOCFRAME ISTACK, 0, STACK
        LOCFRAME PSTACK, 0, STACK
        LOCFRAME XSTACK, 10, STACK
        LOCFRAME IOVERLAY, 0, STATIC
        LOCFRAME DOVERLAY, 0, STATIC
        ARGFRAME ISTACK, 0, STACK
        ARGFRAME PSTACK, 0, STACK
        ARGFRAME XSTACK, 10, STACK
        ARGFRAME IOVERLAY, 0, STATIC
        ARGFRAME DOVERLAY, 0, STATIC
        FUNCALL Hal_ProcessEvent, osal_msg_receive
        LOCFRAME ISTACK, 0, STACK
        LOCFRAME PSTACK, 0, STACK
        LOCFRAME XSTACK, 10, STACK
        LOCFRAME IOVERLAY, 0, STATIC
        LOCFRAME DOVERLAY, 0, STATIC
        ARGFRAME ISTACK, 0, STACK
        ARGFRAME PSTACK, 0, STACK
        ARGFRAME XSTACK, 10, STACK
        ARGFRAME IOVERLAY, 0, STATIC
        ARGFRAME DOVERLAY, 0, STATIC
        FUNCALL Hal_ProcessEvent, HalLedUpdate
        LOCFRAME ISTACK, 0, STACK
        LOCFRAME PSTACK, 0, STACK
        LOCFRAME XSTACK, 10, STACK
        LOCFRAME IOVERLAY, 0, STATIC
        LOCFRAME DOVERLAY, 0, STATIC
        ARGFRAME ISTACK, 0, STACK
        ARGFRAME PSTACK, 0, STACK
        ARGFRAME XSTACK, 10, STACK
        ARGFRAME IOVERLAY, 0, STATIC
        ARGFRAME DOVERLAY, 0, STATIC
        FUNCALL Hal_ProcessEvent, MagneticSwitch_SendTheMessage
        LOCFRAME ISTACK, 0, STACK
        LOCFRAME PSTACK, 0, STACK
        LOCFRAME XSTACK, 10, STACK
        LOCFRAME IOVERLAY, 0, STATIC
        LOCFRAME DOVERLAY, 0, STATIC
        ARGFRAME ISTACK, 0, STACK
        ARGFRAME PSTACK, 0, STACK
        ARGFRAME XSTACK, 10, STACK
        ARGFRAME IOVERLAY, 0, STATIC
        ARGFRAME DOVERLAY, 0, STATIC
        FUNCALL Hal_ProcessEvent, MotionSensor_SendTheMessage
        LOCFRAME ISTACK, 0, STACK
        LOCFRAME PSTACK, 0, STACK
        LOCFRAME XSTACK, 10, STACK
        LOCFRAME IOVERLAY, 0, STATIC
        LOCFRAME DOVERLAY, 0, STATIC
        ARGFRAME ISTACK, 0, STACK
        ARGFRAME PSTACK, 0, STACK
        ARGFRAME XSTACK, 10, STACK
        ARGFRAME IOVERLAY, 0, STATIC
        ARGFRAME DOVERLAY, 0, STATIC
        FUNCALL Hal_ProcessEvent, osal_start_timerEx
        LOCFRAME ISTACK, 0, STACK
        LOCFRAME PSTACK, 0, STACK
        LOCFRAME XSTACK, 14, STACK
        LOCFRAME IOVERLAY, 0, STATIC
        LOCFRAME DOVERLAY, 0, STATIC
        ARGFRAME ISTACK, 0, STACK
        ARGFRAME PSTACK, 0, STACK
        ARGFRAME XSTACK, 14, STACK
        ARGFRAME IOVERLAY, 0, STATIC
        ARGFRAME DOVERLAY, 0, STATIC
        REQUIRE ?V0
        REQUIRE ?V1
        MOV     A,#-0xa
        LCALL   ?BANKED_ENTER_XDATA
          CFI DPH0 load(1, XDATA, add(CFA_XSP16, literal(-1)))
          CFI DPL0 load(1, XDATA, add(CFA_XSP16, literal(-2)))
          CFI ?BRET_EXT load(1, XDATA, add(CFA_XSP16, literal(-3)))
          CFI ?RET_HIGH load(1, XDATA, add(CFA_XSP16, literal(-4)))
          CFI ?RET_LOW load(1, XDATA, add(CFA_XSP16, literal(-5)))
          CFI R7 load(1, XDATA, add(CFA_XSP16, literal(-6)))
          CFI V1 load(1, XDATA, add(CFA_XSP16, literal(-7)))
          CFI V0 load(1, XDATA, add(CFA_XSP16, literal(-8)))
          CFI VB load(1, XDATA, add(CFA_XSP16, literal(-9)))
          CFI R6 load(1, XDATA, add(CFA_XSP16, literal(-10)))
          CFI CFA_SP SP+0
          CFI CFA_XSP16 add(XSP16, 10)
        ; Saved register size: 10
        ; Auto size: 0
        MOV     A,R2
        MOV     R6,A
        MOV     A,R3
        MOV     R7,A
//  186   uint8 *msgPtr;
//  187 
//  188   (void)task_id;  // Intentionally unreferenced parameter
//  189 
//  190   if ( events & SYS_EVENT_MSG )
        ANL     A,#0x80
        JZ      ??Hal_ProcessEvent_0
//  191   {
//  192     msgPtr = osal_msg_receive(Hal_TaskID);
        ; Setup parameters for call to function osal_msg_receive
        SJMP    ??Hal_ProcessEvent_1
//  193 
//  194     while (msgPtr)
//  195     {
//  196       /* Do something here - for now, just deallocate the msg and move on */
//  197 
//  198       /* De-allocate */
//  199       osal_msg_deallocate( msgPtr );
??Hal_ProcessEvent_2:
        ; Setup parameters for call to function osal_msg_deallocate
        LCALL   `??osal_msg_deallocate::?relay`; Banked call to: osal_msg_deallocate
//  200       /* Next */
//  201       msgPtr = osal_msg_receive( Hal_TaskID );
        ; Setup parameters for call to function osal_msg_receive
??Hal_ProcessEvent_1:
        MOV     DPTR,#Hal_TaskID
        MOVX    A,@DPTR
        MOV     R1,A
        LCALL   `??osal_msg_receive::?relay`; Banked call to: osal_msg_receive
//  202     }
        MOV     A,R2
        ORL     A,R3
        JNZ     ??Hal_ProcessEvent_2
//  203     return events ^ SYS_EVENT_MSG;
        MOV     A,R6
        MOV     R2,A
        MOV     A,R7
        XRL     A,#0x80
        SJMP    ??Hal_ProcessEvent_3
//  204   }
//  205 
//  206 #if (defined HAL_BUZZER) && (HAL_BUZZER == TRUE)
//  207   if (events & HAL_BUZZER_EVENT)
//  208   {
//  209     HalBuzzerStop();
//  210     return events ^ HAL_BUZZER_EVENT;
//  211   }
//  212 #endif
//  213 
//  214 #ifdef CC2591_COMPRESSION_WORKAROUND
//  215   if ( events & PERIOD_RSSI_RESET_EVT )
//  216   {
//  217     macRxResetRssi();
//  218     return (events ^ PERIOD_RSSI_RESET_EVT);
//  219   }
//  220 #endif
//  221 
//  222   if ( events & HAL_LED_BLINK_EVENT )
??Hal_ProcessEvent_0:
        MOV     A,R6
        ANL     A,#0x20
        JZ      ??Hal_ProcessEvent_4
//  223   {
//  224 #if (defined (BLINK_LEDS)) && (HAL_LED == TRUE)
//  225     HalLedUpdate();
        ; Setup parameters for call to function HalLedUpdate
        LCALL   `??HalLedUpdate::?relay`; Banked call to: HalLedUpdate
//  226 #endif /* BLINK_LEDS && HAL_LED */
//  227     return events ^ HAL_LED_BLINK_EVENT;
        MOV     A,R6
        XRL     A,#0x20
        SJMP    ??Hal_ProcessEvent_5
//  228   }
//  229 
//  230   if (events & HAL_KEY_EVENT)
??Hal_ProcessEvent_4:
        MOV     A,R6
        ANL     A,#0x10
        JZ      ??Hal_ProcessEvent_6
//  231   {
//  232 #if (defined HAL_KEY) && (HAL_KEY == TRUE)
//  233     /* Check for keys */
//  234     //HalKeyPoll();
//  235     
//  236     if(MagneticSwitchFlag == 1)
        MOV     DPTR,#MagneticSwitchFlag
        MOVX    A,@DPTR
        XRL     A,#0x1
        JNZ     ??Hal_ProcessEvent_7
//  237     {
//  238       MagneticSwitch_SendTheMessage();
        ; Setup parameters for call to function MagneticSwitch_SendTheMessage
        LCALL   `??MagneticSwitch_SendTheMessage::?relay`; Banked call to: MagneticSwitch_SendTheMessage
//  239       MagneticSwitchFlag = 0;
        MOV     DPTR,#MagneticSwitchFlag
        CLR     A
        MOVX    @DPTR,A
//  240     }
//  241     if(MotionSensorFlag == 1)
??Hal_ProcessEvent_7:
        MOV     DPTR,#MotionSensorFlag
        MOVX    A,@DPTR
        XRL     A,#0x1
        JNZ     ??Hal_ProcessEvent_8
//  242     {
//  243       MotionSensor_SendTheMessage();
        ; Setup parameters for call to function MotionSensor_SendTheMessage
        LCALL   `??MotionSensor_SendTheMessage::?relay`; Banked call to: MotionSensor_SendTheMessage
//  244       MotionSensorFlag = 0;
        MOV     DPTR,#MotionSensorFlag
        CLR     A
        MOVX    @DPTR,A
//  245     }
//  246     
//  247     
//  248     
//  249     /* if interrupt disabled, do next polling */
//  250     if (!Hal_KeyIntEnable)
??Hal_ProcessEvent_8:
        MOV     DPTR,#Hal_KeyIntEnable
        MOVX    A,@DPTR
        JNZ     ??Hal_ProcessEvent_9
//  251     {
//  252       osal_start_timerEx( Hal_TaskID, HAL_KEY_EVENT, 100);
        ; Setup parameters for call to function osal_start_timerEx
        MOV     DPTR,#__Constant_64
        LCALL   ?PUSH_XSTACK8_X_FOUR
          CFI CFA_XSP16 add(XSP16, 14)
        MOV     R2,#0x10
        MOV     R3,#0x0
        MOV     DPTR,#Hal_TaskID
        MOVX    A,@DPTR
        MOV     R1,A
        LCALL   `??osal_start_timerEx::?relay`; Banked call to: osal_start_timerEx
        MOV     A,#0x4
        LCALL   ?DEALLOC_XSTACK8
          CFI CFA_XSP16 add(XSP16, 10)
//  253     }
//  254 #endif
//  255     return events ^ HAL_KEY_EVENT;
??Hal_ProcessEvent_9:
        MOV     A,R6
        XRL     A,#0x10
??Hal_ProcessEvent_5:
        MOV     R2,A
        MOV     A,R7
??Hal_ProcessEvent_3:
        MOV     R3,A
        SJMP    ??Hal_ProcessEvent_10
//  256   }
//  257 
//  258 #if defined POWER_SAVING
//  259   if ( events & HAL_SLEEP_TIMER_EVENT )
//  260   {
//  261     halRestoreSleepLevel();
//  262     return events ^ HAL_SLEEP_TIMER_EVENT;
//  263   }
//  264 
//  265   if ( events & HAL_PWRMGR_HOLD_EVENT )
//  266   {
//  267     (void)osal_pwrmgr_task_state(Hal_TaskID, PWRMGR_HOLD);
//  268 
//  269     (void)osal_stop_timerEx(Hal_TaskID, HAL_PWRMGR_CONSERVE_EVENT);
//  270     (void)osal_clear_event(Hal_TaskID, HAL_PWRMGR_CONSERVE_EVENT);
//  271 
//  272     return (events & ~(HAL_PWRMGR_HOLD_EVENT | HAL_PWRMGR_CONSERVE_EVENT));
//  273   }
//  274 
//  275   if ( events & HAL_PWRMGR_CONSERVE_EVENT )
//  276   {
//  277     (void)osal_pwrmgr_task_state(Hal_TaskID, PWRMGR_CONSERVE);
//  278     return events ^ HAL_PWRMGR_CONSERVE_EVENT;
//  279   }
//  280 #endif
//  281 
//  282   return 0;
??Hal_ProcessEvent_6:
        MOV     R2,#0x0
        MOV     R3,#0x0
??Hal_ProcessEvent_10:
        MOV     R7,#0x2
        LJMP    ?BANKED_LEAVE_XDATA
//  283 }
          CFI EndBlock cfiBlock3
//  284 
//  285 /**************************************************************************************************
//  286  * @fn      Hal_ProcessPoll
//  287  *
//  288  * @brief   This routine will be called by OSAL to poll UART, TIMER...
//  289  *
//  290  * @param   task_id - Hal TaskId
//  291  *
//  292  * @return  None
//  293  **************************************************************************************************/

        RSEG BANKED_CODE:HUGECODE:NOROOT(0)
//  294 void Hal_ProcessPoll ()
Hal_ProcessPoll:
          CFI Block cfiBlock4 Using cfiCommon0
          CFI Function Hal_ProcessPoll
        CODE
//  295 {
        FUNCALL Hal_ProcessPoll, HalUARTPoll
        LOCFRAME ISTACK, 2, STACK
        LOCFRAME PSTACK, 0, STACK
        LOCFRAME XSTACK, 0, STACK
        LOCFRAME IOVERLAY, 0, STATIC
        LOCFRAME DOVERLAY, 0, STATIC
        ARGFRAME ISTACK, 2, STACK
        ARGFRAME PSTACK, 0, STACK
        ARGFRAME XSTACK, 0, STACK
        ARGFRAME IOVERLAY, 0, STATIC
        ARGFRAME DOVERLAY, 0, STATIC
        PUSH    DPL
          CFI DPL0 Frame(CFA_SP, 4)
          CFI CFA_SP SP+-4
        PUSH    DPH
          CFI DPH0 Frame(CFA_SP, 5)
          CFI CFA_SP SP+-5
        ; Saved register size: 2
        ; Auto size: 0
//  296 #if defined( POWER_SAVING )
//  297   /* Allow sleep before the next OSAL event loop */
//  298   ALLOW_SLEEP_MODE();
//  299 #endif
//  300   
//  301   /* UART Poll */
//  302 #if (defined HAL_UART) && (HAL_UART == TRUE)
//  303   HalUARTPoll();
        ; Setup parameters for call to function HalUARTPoll
        LCALL   `??HalUARTPoll::?relay`; Banked call to: HalUARTPoll
//  304 #endif
//  305   
//  306   /* SPI Poll */
//  307 #if (defined HAL_SPI) && (HAL_SPI == TRUE)
//  308   HalSpiPoll();
//  309 #endif
//  310 
//  311   /* HID poll */
//  312 #if (defined HAL_HID) && (HAL_HID == TRUE)
//  313   usbHidProcessEvents();
//  314 #endif
//  315  
//  316 }
        LJMP    ?Subroutine0 & 0xFFFF
          CFI EndBlock cfiBlock4

        RSEG XDATA_ROM_C:CONST:REORDER:NOROOT(0)
        DATA32
__Constant_64:
        DD 100

        RSEG BANK_RELAYS:CODE:REORDER:NOROOT(0)
`??Hal_Init::?relay`:
        CODE
        LCALL   ?BDISPATCH
        DATA24
        DC24    Hal_Init

        RSEG BANK_RELAYS:CODE:REORDER:NOROOT(0)
`??HalDriverInit::?relay`:
        CODE
        LCALL   ?BDISPATCH
        DATA24
        DC24    HalDriverInit

        RSEG BANK_RELAYS:CODE:REORDER:NOROOT(0)
`??Hal_ProcessEvent::?relay`:
        CODE
        LCALL   ?BDISPATCH
        DATA24
        DC24    Hal_ProcessEvent

        RSEG BANK_RELAYS:CODE:REORDER:NOROOT(0)
`??Hal_ProcessPoll::?relay`:
        CODE
        LCALL   ?BDISPATCH
        DATA24
        DC24    Hal_ProcessPoll

        END
//  317 
//  318 /**************************************************************************************************
//  319 **************************************************************************************************/
//  320 
// 
// 186 bytes in segment BANKED_CODE
//  24 bytes in segment BANK_RELAYS
//   4 bytes in segment XDATA_ROM_C
//   3 bytes in segment XDATA_Z
// 
//  24 bytes of CODE     memory
//   0 bytes of CONST    memory (+ 4 bytes shared)
// 186 bytes of HUGECODE memory
//   3 bytes of XDATA    memory
//
//Errors: none
//Warnings: none
